
========================================================================

** ELF Header Information

    File Name: .\Objects\ARM32.axf

    Machine class: ELFCLASS32 (32-bit)
    Data encoding: ELFDATA2LSB (Little endian)
    Header version: EV_CURRENT (Current version)
    Operating System ABI: none
    ABI Version: 0
    File Type: ET_EXEC (Executable) (2)
    Machine: EM_ARM (ARM)

    Image Entry point: 0x08000131
    Flags: EF_ARM_HASENTRY (0x05000002)

    ARM ELF revision: 5 (ABI version 2)

    Conforms to Base float procedure-call standard

    Built with
    Component: ARM Compiler 5.06 update 6 (build 750) Tool: armasm [4d35ec]
    Component: ARM Compiler 5.06 update 6 (build 750) Tool: armlink [4d35ed]

    Header size: 52 bytes (0x34)
    Program header entry size: 32 bytes (0x20)
    Section header entry size: 40 bytes (0x28)

    Program header entries: 1
    Section header entries: 16

    Program header offset: 351288 (0x00055c38)
    Section header offset: 351320 (0x00055c58)

    Section header string table index: 15

========================================================================

** Program header #0 (PT_LOAD) [PF_X + PF_W + PF_R + PF_ARM_ENTRY]
    Size : 15100 bytes (13436 bytes in file)
    Virtual address: 0x08000000 (Alignment 8)


========================================================================

** Section #1 'ER_IROM1' (SHT_PROGBITS) [SHF_ALLOC + SHF_EXECINSTR]
    Size   : 13292 bytes (alignment 4)
    Address: 0x08000000

    $d.realdata
    RESET
    __Vectors
        0x08000000:    20000710    ...     DCD    536872720
        0x08000004:    08000145    E...    DCD    134218053
        0x08000008:    08000a55    U...    DCD    134220373
        0x0800000c:    08000709    ....    DCD    134219529
        0x08000010:    080009a5    ....    DCD    134220197
        0x08000014:    080003c9    ....    DCD    134218697
        0x08000018:    08001135    5...    DCD    134222133
        0x0800001c:    00000000    ....    DCD    0
        0x08000020:    00000000    ....    DCD    0
        0x08000024:    00000000    ....    DCD    0
        0x08000028:    00000000    ....    DCD    0
        0x0800002c:    08000cd9    ....    DCD    134221017
        0x08000030:    08000407    ....    DCD    134218759
        0x08000034:    00000000    ....    DCD    0
        0x08000038:    08000a5f    _...    DCD    134220383
        0x0800003c:    08000d4d    M...    DCD    134221133
        0x08000040:    0800015f    _...    DCD    134218079
        0x08000044:    0800015f    _...    DCD    134218079
        0x08000048:    0800015f    _...    DCD    134218079
        0x0800004c:    0800015f    _...    DCD    134218079
        0x08000050:    0800015f    _...    DCD    134218079
        0x08000054:    0800015f    _...    DCD    134218079
        0x08000058:    0800015f    _...    DCD    134218079
        0x0800005c:    0800015f    _...    DCD    134218079
        0x08000060:    0800015f    _...    DCD    134218079
        0x08000064:    0800015f    _...    DCD    134218079
        0x08000068:    0800015f    _...    DCD    134218079
        0x0800006c:    0800015f    _...    DCD    134218079
        0x08000070:    0800015f    _...    DCD    134218079
        0x08000074:    0800015f    _...    DCD    134218079
        0x08000078:    0800015f    _...    DCD    134218079
        0x0800007c:    0800015f    _...    DCD    134218079
        0x08000080:    0800015f    _...    DCD    134218079
        0x08000084:    0800015f    _...    DCD    134218079
        0x08000088:    0800015f    _...    DCD    134218079
        0x0800008c:    0800015f    _...    DCD    134218079
        0x08000090:    0800015f    _...    DCD    134218079
        0x08000094:    0800015f    _...    DCD    134218079
        0x08000098:    0800015f    _...    DCD    134218079
        0x0800009c:    0800015f    _...    DCD    134218079
        0x080000a0:    0800015f    _...    DCD    134218079
        0x080000a4:    0800015f    _...    DCD    134218079
        0x080000a8:    0800015f    _...    DCD    134218079
        0x080000ac:    0800015f    _...    DCD    134218079
        0x080000b0:    0800015f    _...    DCD    134218079
        0x080000b4:    0800015f    _...    DCD    134218079
        0x080000b8:    08000e89    ....    DCD    134221449
        0x080000bc:    0800015f    _...    DCD    134218079
        0x080000c0:    0800015f    _...    DCD    134218079
        0x080000c4:    0800015f    _...    DCD    134218079
        0x080000c8:    0800015f    _...    DCD    134218079
        0x080000cc:    0800015f    _...    DCD    134218079
        0x080000d0:    0800015f    _...    DCD    134218079
        0x080000d4:    08001065    e...    DCD    134221925
        0x080000d8:    080010a1    ....    DCD    134221985
        0x080000dc:    0800015f    _...    DCD    134218079
        0x080000e0:    0800015f    _...    DCD    134218079
        0x080000e4:    0800015f    _...    DCD    134218079
        0x080000e8:    0800015f    _...    DCD    134218079
        0x080000ec:    0800015f    _...    DCD    134218079
        0x080000f0:    0800015f    _...    DCD    134218079
        0x080000f4:    0800015f    _...    DCD    134218079
        0x080000f8:    0800015f    _...    DCD    134218079
        0x080000fc:    0800015f    _...    DCD    134218079
        0x08000100:    0800015f    _...    DCD    134218079
        0x08000104:    0800015f    _...    DCD    134218079
        0x08000108:    08000eb1    ....    DCD    134221489
        0x0800010c:    0800015f    _...    DCD    134218079
        0x08000110:    0800015f    _...    DCD    134218079
        0x08000114:    0800015f    _...    DCD    134218079
        0x08000118:    0800015f    _...    DCD    134218079
        0x0800011c:    0800015f    _...    DCD    134218079
        0x08000120:    0800015f    _...    DCD    134218079
        0x08000124:    0800015f    _...    DCD    134218079
        0x08000128:    0800015f    _...    DCD    134218079
        0x0800012c:    0800015f    _...    DCD    134218079
    $t
    .ARM.Collect$$$$00000000
    .ARM.Collect$$$$00000001
    __Vectors_End
    __main
    _main_stk
        0x08000130:    f8dfd00c    ....    LDR      sp,__lit__00000000 ; [0x8000140] = 0x20000710
    .ARM.Collect$$$$00000004
    _main_scatterload
        0x08000134:    f000f84a    ..J.    BL       __scatterload ; 0x80001cc
    .ARM.Collect$$$$00000008
    .ARM.Collect$$$$0000000A
    .ARM.Collect$$$$0000000B
    __main_after_scatterload
    _main_clock
    _main_cpp_init
    _main_init
        0x08000138:    4800        .H      LDR      r0,[pc,#0] ; [0x800013c] = 0x8002273
        0x0800013a:    4700        .G      BX       r0
    $d
        0x0800013c:    08002273    s"..    DCD    134226547
    .ARM.Collect$$$$00002712
    __lit__00000000
    .ARM.Collect$$$$0000000D
    .ARM.Collect$$$$0000000F
    __rt_final_cpp
    __rt_final_exit
        0x08000140:    20000710    ...     DCD    536872720
    $t
    .text
    $v0
    Reset_Handler
        0x08000144:    4806        .H      LDR      r0,[pc,#24] ; [0x8000160] = 0x8000d7d
        0x08000146:    4780        .G      BLX      r0
        0x08000148:    4806        .H      LDR      r0,[pc,#24] ; [0x8000164] = 0x8000131
        0x0800014a:    4700        .G      BX       r0
        0x0800014c:    e7fe        ..      B        0x800014c ; Reset_Handler + 8
        0x0800014e:    e7fe        ..      B        0x800014e ; Reset_Handler + 10
        0x08000150:    e7fe        ..      B        0x8000150 ; Reset_Handler + 12
        0x08000152:    e7fe        ..      B        0x8000152 ; Reset_Handler + 14
        0x08000154:    e7fe        ..      B        0x8000154 ; Reset_Handler + 16
        0x08000156:    e7fe        ..      B        0x8000156 ; Reset_Handler + 18
        0x08000158:    e7fe        ..      B        0x8000158 ; Reset_Handler + 20
        0x0800015a:    e7fe        ..      B        0x800015a ; Reset_Handler + 22
        0x0800015c:    e7fe        ..      B        0x800015c ; Reset_Handler + 24
    ADC0_1_IRQHandler
    ADC2_IRQHandler
    CAN0_EWMC_IRQHandler
    CAN0_RX1_IRQHandler
    DMA0_Channel0_IRQHandler
    DMA0_Channel1_IRQHandler
    DMA0_Channel2_IRQHandler
    DMA0_Channel3_IRQHandler
    DMA0_Channel4_IRQHandler
    DMA0_Channel5_IRQHandler
    DMA0_Channel6_IRQHandler
    DMA1_Channel0_IRQHandler
    DMA1_Channel1_IRQHandler
    DMA1_Channel2_IRQHandler
    DMA1_Channel3_4_IRQHandler
    EXMC_IRQHandler
    EXTI0_IRQHandler
    EXTI10_15_IRQHandler
    EXTI1_IRQHandler
    EXTI2_IRQHandler
    EXTI3_IRQHandler
    EXTI4_IRQHandler
    EXTI5_9_IRQHandler
    FMC_IRQHandler
    I2C0_ER_IRQHandler
    I2C0_EV_IRQHandler
    I2C1_ER_IRQHandler
    I2C1_EV_IRQHandler
    LVD_IRQHandler
    RCU_CTC_IRQHandler
    RTC_Alarm_IRQHandler
    RTC_IRQHandler
    SDIO_IRQHandler
    SPI0_IRQHandler
    SPI1_IRQHandler
    SPI2_IRQHandler
    TAMPER_IRQHandler
    TIMER0_BRK_IRQHandler
    TIMER0_Channel_IRQHandler
    TIMER0_TRG_CMT_IRQHandler
    TIMER0_UP_IRQHandler
    TIMER1_IRQHandler
    TIMER2_IRQHandler
    TIMER5_IRQHandler
    TIMER6_IRQHandler
    TIMER7_BRK_IRQHandler
    TIMER7_Channel_IRQHandler
    TIMER7_TRG_CMT_IRQHandler
    TIMER7_UP_IRQHandler
    UART3_IRQHandler
    UART4_IRQHandler
    USART2_IRQHandler
    USBD_HP_CAN0_TX_IRQHandler
    USBD_LP_CAN0_RX0_IRQHandler
    USBD_WKUP_IRQHandler
    WWDGT_IRQHandler
        0x0800015e:    e7fe        ..      B        ADC0_1_IRQHandler ; 0x800015e
    $d
        0x08000160:    08000d7d    }...    DCD    134221181
        0x08000164:    08000131    1...    DCD    134218033
    $t
    .text
    __aeabi_uldivmod
        0x08000168:    e92d5ff0    -.._    PUSH     {r4-r12,lr}
        0x0800016c:    4605        .F      MOV      r5,r0
        0x0800016e:    2000        .       MOVS     r0,#0
        0x08000170:    4692        .F      MOV      r10,r2
        0x08000172:    469b        .F      MOV      r11,r3
        0x08000174:    4688        .F      MOV      r8,r1
        0x08000176:    4606        .F      MOV      r6,r0
        0x08000178:    4681        .F      MOV      r9,r0
        0x0800017a:    2440        @$      MOVS     r4,#0x40
        0x0800017c:    e01b        ..      B        0x80001b6 ; __aeabi_uldivmod + 78
        0x0800017e:    4628        (F      MOV      r0,r5
        0x08000180:    4641        AF      MOV      r1,r8
        0x08000182:    4647        GF      MOV      r7,r8
        0x08000184:    4622        "F      MOV      r2,r4
        0x08000186:    f000f842    ..B.    BL       __aeabi_llsr ; 0x800020e
        0x0800018a:    4653        SF      MOV      r3,r10
        0x0800018c:    465a        ZF      MOV      r2,r11
        0x0800018e:    1ac0        ..      SUBS     r0,r0,r3
        0x08000190:    4191        .A      SBCS     r1,r1,r2
        0x08000192:    d310        ..      BCC      0x80001b6 ; __aeabi_uldivmod + 78
        0x08000194:    4611        .F      MOV      r1,r2
        0x08000196:    4618        .F      MOV      r0,r3
        0x08000198:    4622        "F      MOV      r2,r4
        0x0800019a:    f000f829    ..).    BL       __aeabi_llsl ; 0x80001f0
        0x0800019e:    1a2d        -.      SUBS     r5,r5,r0
        0x080001a0:    eb670801    g...    SBC      r8,r7,r1
        0x080001a4:    464f        OF      MOV      r7,r9
        0x080001a6:    4622        "F      MOV      r2,r4
        0x080001a8:    2001        .       MOVS     r0,#1
        0x080001aa:    2100        .!      MOVS     r1,#0
        0x080001ac:    f000f820    .. .    BL       __aeabi_llsl ; 0x80001f0
        0x080001b0:    eb170900    ....    ADDS     r9,r7,r0
        0x080001b4:    414e        NA      ADCS     r6,r6,r1
        0x080001b6:    1e20         .      SUBS     r0,r4,#0
        0x080001b8:    f1a40401    ....    SUB      r4,r4,#1
        0x080001bc:    dcdf        ..      BGT      0x800017e ; __aeabi_uldivmod + 22
        0x080001be:    4648        HF      MOV      r0,r9
        0x080001c0:    4631        1F      MOV      r1,r6
        0x080001c2:    462a        *F      MOV      r2,r5
        0x080001c4:    4643        CF      MOV      r3,r8
        0x080001c6:    e8bd9ff0    ....    POP      {r4-r12,pc}
        0x080001ca:    0000        ..      MOVS     r0,r0
    .text
    __scatterload
    __scatterload_rt2
        0x080001cc:    4c06        .L      LDR      r4,[pc,#24] ; [0x80001e8] = 0x80033cc
        0x080001ce:    4d07        .M      LDR      r5,[pc,#28] ; [0x80001ec] = 0x80033ec
        0x080001d0:    e006        ..      B        0x80001e0 ; __scatterload + 20
        0x080001d2:    68e0        .h      LDR      r0,[r4,#0xc]
        0x080001d4:    f0400301    @...    ORR      r3,r0,#1
        0x080001d8:    e8940007    ....    LDM      r4,{r0-r2}
        0x080001dc:    4798        .G      BLX      r3
        0x080001de:    3410        .4      ADDS     r4,r4,#0x10
        0x080001e0:    42ac        .B      CMP      r4,r5
        0x080001e2:    d3f6        ..      BCC      0x80001d2 ; __scatterload + 6
        0x080001e4:    f7ffffa8    ....    BL       __main_after_scatterload ; 0x8000138
    $d
        0x080001e8:    080033cc    .3..    DCD    134230988
        0x080001ec:    080033ec    .3..    DCD    134231020
    $t
    .text
    __aeabi_llsl
    _ll_shift_l
        0x080001f0:    2a20         *      CMP      r2,#0x20
        0x080001f2:    db04        ..      BLT      0x80001fe ; __aeabi_llsl + 14
        0x080001f4:    3a20         :      SUBS     r2,r2,#0x20
        0x080001f6:    fa00f102    ....    LSL      r1,r0,r2
        0x080001fa:    2000        .       MOVS     r0,#0
        0x080001fc:    4770        pG      BX       lr
        0x080001fe:    4091        .@      LSLS     r1,r1,r2
        0x08000200:    f1c20320    .. .    RSB      r3,r2,#0x20
        0x08000204:    fa20f303     ...    LSR      r3,r0,r3
        0x08000208:    4319        .C      ORRS     r1,r1,r3
        0x0800020a:    4090        .@      LSLS     r0,r0,r2
        0x0800020c:    4770        pG      BX       lr
    .text
    __aeabi_llsr
    _ll_ushift_r
        0x0800020e:    2a20         *      CMP      r2,#0x20
        0x08000210:    db04        ..      BLT      0x800021c ; __aeabi_llsr + 14
        0x08000212:    3a20         :      SUBS     r2,r2,#0x20
        0x08000214:    fa21f002    !...    LSR      r0,r1,r2
        0x08000218:    2100        .!      MOVS     r1,#0
        0x0800021a:    4770        pG      BX       lr
        0x0800021c:    fa21f302    !...    LSR      r3,r1,r2
        0x08000220:    40d0        .@      LSRS     r0,r0,r2
        0x08000222:    f1c20220    .. .    RSB      r2,r2,#0x20
        0x08000226:    4091        .@      LSLS     r1,r1,r2
        0x08000228:    4308        .C      ORRS     r0,r0,r1
        0x0800022a:    4619        .F      MOV      r1,r3
        0x0800022c:    4770        pG      BX       lr
    .text
    __decompress
    __decompress1
        0x0800022e:    b570        p.      PUSH     {r4-r6,lr}
        0x08000230:    188c        ..      ADDS     r4,r1,r2
        0x08000232:    f8105b01    ...[    LDRB     r5,[r0],#1
        0x08000236:    f0150307    ....    ANDS     r3,r5,#7
        0x0800023a:    d101        ..      BNE      0x8000240 ; __decompress + 18
        0x0800023c:    f8103b01    ...;    LDRB     r3,[r0],#1
        0x08000240:    112a        *.      ASRS     r2,r5,#4
        0x08000242:    d106        ..      BNE      0x8000252 ; __decompress + 36
        0x08000244:    f8102b01    ...+    LDRB     r2,[r0],#1
        0x08000248:    e003        ..      B        0x8000252 ; __decompress + 36
        0x0800024a:    f8106b01    ...k    LDRB     r6,[r0],#1
        0x0800024e:    f8016b01    ...k    STRB     r6,[r1],#1
        0x08000252:    1e5b        [.      SUBS     r3,r3,#1
        0x08000254:    d1f9        ..      BNE      0x800024a ; __decompress + 28
        0x08000256:    072b        +.      LSLS     r3,r5,#28
        0x08000258:    d405        ..      BMI      0x8000266 ; __decompress + 56
        0x0800025a:    2300        .#      MOVS     r3,#0
        0x0800025c:    1e52        R.      SUBS     r2,r2,#1
        0x0800025e:    d40d        ..      BMI      0x800027c ; __decompress + 78
        0x08000260:    f8013b01    ...;    STRB     r3,[r1],#1
        0x08000264:    e7fa        ..      B        0x800025c ; __decompress + 46
        0x08000266:    f8103b01    ...;    LDRB     r3,[r0],#1
        0x0800026a:    1acb        ..      SUBS     r3,r1,r3
        0x0800026c:    1c92        ..      ADDS     r2,r2,#2
        0x0800026e:    e003        ..      B        0x8000278 ; __decompress + 74
        0x08000270:    f8135b01    ...[    LDRB     r5,[r3],#1
        0x08000274:    f8015b01    ...[    STRB     r5,[r1],#1
        0x08000278:    1e52        R.      SUBS     r2,r2,#1
        0x0800027a:    d5f9        ..      BPL      0x8000270 ; __decompress + 66
        0x0800027c:    42a1        .B      CMP      r1,r4
        0x0800027e:    d3d8        ..      BCC      0x8000232 ; __decompress + 4
        0x08000280:    2000        .       MOVS     r0,#0
        0x08000282:    bd70        p.      POP      {r4-r6,pc}
    i.AcPowerProc
    AcPowerProc
        0x08000284:    b510        ..      PUSH     {r4,lr}
        0x08000286:    2101        .!      MOVS     r1,#1
        0x08000288:    480b        .H      LDR      r0,[pc,#44] ; [0x80002b8] = 0x40010c00
        0x0800028a:    f001ffea    ....    BL       gpio_output_bit_get ; 0x8002262
        0x0800028e:    f1c00001    ....    RSB      r0,r0,#1
        0x08000292:    b2c4        ..      UXTB     r4,r0
        0x08000294:    4622        "F      MOV      r2,r4
        0x08000296:    2101        .!      MOVS     r1,#1
        0x08000298:    4807        .H      LDR      r0,[pc,#28] ; [0x80002b8] = 0x40010c00
        0x0800029a:    f001ff77    ..w.    BL       gpio_bit_write ; 0x800218c
        0x0800029e:    2102        .!      MOVS     r1,#2
        0x080002a0:    4805        .H      LDR      r0,[pc,#20] ; [0x80002b8] = 0x40010c00
        0x080002a2:    f001ffde    ....    BL       gpio_output_bit_get ; 0x8002262
        0x080002a6:    f1c00001    ....    RSB      r0,r0,#1
        0x080002aa:    b2c4        ..      UXTB     r4,r0
        0x080002ac:    4622        "F      MOV      r2,r4
        0x080002ae:    2102        .!      MOVS     r1,#2
        0x080002b0:    4801        .H      LDR      r0,[pc,#4] ; [0x80002b8] = 0x40010c00
        0x080002b2:    f001ff6b    ..k.    BL       gpio_bit_write ; 0x800218c
        0x080002b6:    bd10        ..      POP      {r4,pc}
    $d
        0x080002b8:    40010c00    ...@    DCD    1073810432
    $t
    i.AdcInit
    AdcInit
        0x080002bc:    b510        ..      PUSH     {r4,lr}
        0x080002be:    f2406009    @..`    MOV      r0,#0x609
        0x080002c2:    f002fa1f    ....    BL       rcu_periph_clock_enable ; 0x8002704
        0x080002c6:    2002        .       MOVS     r0,#2
        0x080002c8:    f002f87c    ..|.    BL       rcu_adc_clock_config ; 0x80023c4
        0x080002cc:    2000        .       MOVS     r0,#0
        0x080002ce:    f001fb71    ..q.    BL       adc_mode_config ; 0x80019b4
        0x080002d2:    2201        ."      MOVS     r2,#1
        0x080002d4:    2102        .!      MOVS     r1,#2
        0x080002d6:    481a        .H      LDR      r0,[pc,#104] ; [0x8000340] = 0x40012400
        0x080002d8:    f001fc07    ....    BL       adc_special_function_config ; 0x8001aea
        0x080002dc:    2100        .!      MOVS     r1,#0
        0x080002de:    4818        .H      LDR      r0,[pc,#96] ; [0x8000340] = 0x40012400
        0x080002e0:    f001fb15    ....    BL       adc_data_alignment_config ; 0x800190e
        0x080002e4:    2201        ."      MOVS     r2,#1
        0x080002e6:    4611        .F      MOV      r1,r2
        0x080002e8:    4815        .H      LDR      r0,[pc,#84] ; [0x8000340] = 0x40012400
        0x080002ea:    f001faed    ....    BL       adc_channel_length_config ; 0x80018c8
        0x080002ee:    2307        .#      MOVS     r3,#7
        0x080002f0:    220d        ."      MOVS     r2,#0xd
        0x080002f2:    2100        .!      MOVS     r1,#0
        0x080002f4:    4812        .H      LDR      r0,[pc,#72] ; [0x8000340] = 0x40012400
        0x080002f6:    f001fb8f    ....    BL       adc_regular_channel_config ; 0x8001a18
        0x080002fa:    f44f2260    O.`"    MOV      r2,#0xe0000
        0x080002fe:    2101        .!      MOVS     r1,#1
        0x08000300:    480f        .H      LDR      r0,[pc,#60] ; [0x8000340] = 0x40012400
        0x08000302:    f001fb37    ..7.    BL       adc_external_trigger_source_config ; 0x8001974
        0x08000306:    2201        ."      MOVS     r2,#1
        0x08000308:    4611        .F      MOV      r1,r2
        0x0800030a:    480d        .H      LDR      r0,[pc,#52] ; [0x8000340] = 0x40012400
        0x0800030c:    f001fb13    ....    BL       adc_external_trigger_config ; 0x8001936
        0x08000310:    230c        .#      MOVS     r3,#0xc
        0x08000312:    2280        ."      MOVS     r2,#0x80
        0x08000314:    2100        .!      MOVS     r1,#0
        0x08000316:    480a        .H      LDR      r0,[pc,#40] ; [0x8000340] = 0x40012400
        0x08000318:    f001fb5a    ..Z.    BL       adc_oversample_mode_config ; 0x80019d0
        0x0800031c:    4808        .H      LDR      r0,[pc,#32] ; [0x8000340] = 0x40012400
        0x0800031e:    f001fb74    ..t.    BL       adc_oversample_mode_enable ; 0x8001a0a
        0x08000322:    4807        .H      LDR      r0,[pc,#28] ; [0x8000340] = 0x40012400
        0x08000324:    f001fafe    ....    BL       adc_enable ; 0x8001924
        0x08000328:    2032        2       MOVS     r0,#0x32
        0x0800032a:    f000f88b    ....    BL       DelayNus ; 0x8000444
        0x0800032e:    4804        .H      LDR      r0,[pc,#16] ; [0x8000340] = 0x40012400
        0x08000330:    f001fab5    ....    BL       adc_calibration_enable ; 0x800189e
        0x08000334:    2101        .!      MOVS     r1,#1
        0x08000336:    4802        .H      LDR      r0,[pc,#8] ; [0x8000340] = 0x40012400
        0x08000338:    f001fbc8    ....    BL       adc_software_trigger_enable ; 0x8001acc
        0x0800033c:    bd10        ..      POP      {r4,pc}
    $d
        0x0800033e:    0000        ..      DCW    0
        0x08000340:    40012400    .$.@    DCD    1073816576
    $t
    i.AdcInit
    AdcInit
        0x08000344:    b510        ..      PUSH     {r4,lr}
        0x08000346:    f240600a    @..`    MOV      r0,#0x60a
        0x0800034a:    f002f9db    ....    BL       rcu_periph_clock_enable ; 0x8002704
        0x0800034e:    2002        .       MOVS     r0,#2
        0x08000350:    f002f838    ..8.    BL       rcu_adc_clock_config ; 0x80023c4
        0x08000354:    2000        .       MOVS     r0,#0
        0x08000356:    f001fb2d    ..-.    BL       adc_mode_config ; 0x80019b4
        0x0800035a:    2200        ."      MOVS     r2,#0
        0x0800035c:    2102        .!      MOVS     r1,#2
        0x0800035e:    4813        .H      LDR      r0,[pc,#76] ; [0x80003ac] = 0x40012800
        0x08000360:    f001fbc3    ....    BL       adc_special_function_config ; 0x8001aea
        0x08000364:    2100        .!      MOVS     r1,#0
        0x08000366:    4811        .H      LDR      r0,[pc,#68] ; [0x80003ac] = 0x40012800
        0x08000368:    f001fad1    ....    BL       adc_data_alignment_config ; 0x800190e
        0x0800036c:    2201        ."      MOVS     r2,#1
        0x0800036e:    4611        .F      MOV      r1,r2
        0x08000370:    480e        .H      LDR      r0,[pc,#56] ; [0x80003ac] = 0x40012800
        0x08000372:    f001faa9    ....    BL       adc_channel_length_config ; 0x80018c8
        0x08000376:    2306        .#      MOVS     r3,#6
        0x08000378:    220e        ."      MOVS     r2,#0xe
        0x0800037a:    2100        .!      MOVS     r1,#0
        0x0800037c:    480b        .H      LDR      r0,[pc,#44] ; [0x80003ac] = 0x40012800
        0x0800037e:    f001fb4b    ..K.    BL       adc_regular_channel_config ; 0x8001a18
        0x08000382:    f44f2260    O.`"    MOV      r2,#0xe0000
        0x08000386:    2101        .!      MOVS     r1,#1
        0x08000388:    4808        .H      LDR      r0,[pc,#32] ; [0x80003ac] = 0x40012800
        0x0800038a:    f001faf3    ....    BL       adc_external_trigger_source_config ; 0x8001974
        0x0800038e:    2201        ."      MOVS     r2,#1
        0x08000390:    4611        .F      MOV      r1,r2
        0x08000392:    4806        .H      LDR      r0,[pc,#24] ; [0x80003ac] = 0x40012800
        0x08000394:    f001facf    ....    BL       adc_external_trigger_config ; 0x8001936
        0x08000398:    4804        .H      LDR      r0,[pc,#16] ; [0x80003ac] = 0x40012800
        0x0800039a:    f001fac3    ....    BL       adc_enable ; 0x8001924
        0x0800039e:    2032        2       MOVS     r0,#0x32
        0x080003a0:    f000f850    ..P.    BL       DelayNus ; 0x8000444
        0x080003a4:    4801        .H      LDR      r0,[pc,#4] ; [0x80003ac] = 0x40012800
        0x080003a6:    f001fa7a    ..z.    BL       adc_calibration_enable ; 0x800189e
        0x080003aa:    bd10        ..      POP      {r4,pc}
    $d
        0x080003ac:    40012800    .(.@    DCD    1073817600
    $t
    i.AppInit
    AppInit
        0x080003b0:    b510        ..      PUSH     {r4,lr}
        0x080003b2:    4804        .H      LDR      r0,[pc,#16] ; [0x80003c4] = 0x8000f45
        0x080003b4:    f000fdfa    ....    BL       TaskScheduleCbReg ; 0x8000fac
        0x080003b8:    f000faf6    ....    BL       ModbusAppInit ; 0x80009a8
        0x080003bc:    f000fa02    ....    BL       InitSysParam ; 0x80007c4
        0x080003c0:    bd10        ..      POP      {r4,pc}
    $d
        0x080003c2:    0000        ..      DCW    0
        0x080003c4:    08000f45    E...    DCD    134221637
    $t
    i.BusFault_Handler
    BusFault_Handler
        0x080003c8:    bf00        ..      NOP      
        0x080003ca:    e7fe        ..      B        0x80003ca ; BusFault_Handler + 2
    i.CalcCrc8
    CalcCrc8
        0x080003cc:    b530        0.      PUSH     {r4,r5,lr}
        0x080003ce:    4602        .F      MOV      r2,r0
        0x080003d0:    460b        .F      MOV      r3,r1
        0x080003d2:    20ff        .       MOVS     r0,#0xff
        0x080003d4:    2100        .!      MOVS     r1,#0
        0x080003d6:    e013        ..      B        0x8000400 ; CalcCrc8 + 52
        0x080003d8:    5c54        T\      LDRB     r4,[r2,r1]
        0x080003da:    4060        `@      EORS     r0,r0,r4
        0x080003dc:    2408        .$      MOVS     r4,#8
        0x080003de:    e00b        ..      B        0x80003f8 ; CalcCrc8 + 44
        0x080003e0:    f0000580    ....    AND      r5,r0,#0x80
        0x080003e4:    b125        %.      CBZ      r5,0x80003f0 ; CalcCrc8 + 36
        0x080003e6:    2531        1%      MOVS     r5,#0x31
        0x080003e8:    ea850540    ..@.    EOR      r5,r5,r0,LSL #1
        0x080003ec:    b2e8        ..      UXTB     r0,r5
        0x080003ee:    e001        ..      B        0x80003f4 ; CalcCrc8 + 40
        0x080003f0:    0645        E.      LSLS     r5,r0,#25
        0x080003f2:    0e28        (.      LSRS     r0,r5,#24
        0x080003f4:    1e65        e.      SUBS     r5,r4,#1
        0x080003f6:    b2ec        ..      UXTB     r4,r5
        0x080003f8:    2c00        .,      CMP      r4,#0
        0x080003fa:    dcf1        ..      BGT      0x80003e0 ; CalcCrc8 + 20
        0x080003fc:    1c4c        L.      ADDS     r4,r1,#1
        0x080003fe:    b2e1        ..      UXTB     r1,r4
        0x08000400:    4299        .B      CMP      r1,r3
        0x08000402:    d3e9        ..      BCC      0x80003d8 ; CalcCrc8 + 12
        0x08000404:    bd30        0.      POP      {r4,r5,pc}
    i.DebugMon_Handler
    DebugMon_Handler
        0x08000406:    4770        pG      BX       lr
    i.DelayInit
    DelayInit
        0x08000408:    480c        .H      LDR      r0,[pc,#48] ; [0x800043c] = 0xe000edfc
        0x0800040a:    6800        .h      LDR      r0,[r0,#0]
        0x0800040c:    f0207080     ..p    BIC      r0,r0,#0x1000000
        0x08000410:    490a        .I      LDR      r1,[pc,#40] ; [0x800043c] = 0xe000edfc
        0x08000412:    6008        .`      STR      r0,[r1,#0]
        0x08000414:    4608        .F      MOV      r0,r1
        0x08000416:    6800        .h      LDR      r0,[r0,#0]
        0x08000418:    f0407080    @..p    ORR      r0,r0,#0x1000000
        0x0800041c:    6008        .`      STR      r0,[r1,#0]
        0x0800041e:    4808        .H      LDR      r0,[pc,#32] ; [0x8000440] = 0xe0001000
        0x08000420:    6800        .h      LDR      r0,[r0,#0]
        0x08000422:    f0200001     ...    BIC      r0,r0,#1
        0x08000426:    4906        .I      LDR      r1,[pc,#24] ; [0x8000440] = 0xe0001000
        0x08000428:    6008        .`      STR      r0,[r1,#0]
        0x0800042a:    4608        .F      MOV      r0,r1
        0x0800042c:    6800        .h      LDR      r0,[r0,#0]
        0x0800042e:    f0400001    @...    ORR      r0,r0,#1
        0x08000432:    6008        .`      STR      r0,[r1,#0]
        0x08000434:    2000        .       MOVS     r0,#0
        0x08000436:    6048        H`      STR      r0,[r1,#4]
        0x08000438:    4770        pG      BX       lr
    $d
        0x0800043a:    0000        ..      DCW    0
        0x0800043c:    e000edfc    ....    DCD    3758157308
        0x08000440:    e0001000    ....    DCD    3758100480
    $t
    i.DelayNus
    DelayNus
        0x08000444:    b570        p.      PUSH     {r4-r6,lr}
        0x08000446:    4604        .F      MOV      r4,r0
        0x08000448:    4807        .H      LDR      r0,[pc,#28] ; [0x8000468] = 0xe0001000
        0x0800044a:    6845        Eh      LDR      r5,[r0,#4]
        0x0800044c:    2001        .       MOVS     r0,#1
        0x0800044e:    f002f803    ....    BL       rcu_clock_freq_get ; 0x8002458
        0x08000452:    4906        .I      LDR      r1,[pc,#24] ; [0x800046c] = 0xf4240
        0x08000454:    fbb0f0f1    ....    UDIV     r0,r0,r1
        0x08000458:    4344        DC      MULS     r4,r0,r4
        0x0800045a:    bf00        ..      NOP      
        0x0800045c:    4802        .H      LDR      r0,[pc,#8] ; [0x8000468] = 0xe0001000
        0x0800045e:    6840        @h      LDR      r0,[r0,#4]
        0x08000460:    1b40        @.      SUBS     r0,r0,r5
        0x08000462:    42a0        .B      CMP      r0,r4
        0x08000464:    d3fa        ..      BCC      0x800045c ; DelayNus + 24
        0x08000466:    bd70        p.      POP      {r4-r6,pc}
    $d
        0x08000468:    e0001000    ....    DCD    3758100480
        0x0800046c:    000f4240    @B..    DCD    1000000
    $t
    i.DrvInit
    DrvInit
        0x08000470:    b510        ..      PUSH     {r4,lr}
        0x08000472:    f7ffffc9    ....    BL       DelayInit ; 0x8000408
        0x08000476:    f000fa67    ..g.    BL       LedDrvInit ; 0x8000948
        0x0800047a:    f000f9c1    ....    BL       KeyDrvInit ; 0x8000800
        0x0800047e:    f000fe5b    ..[.    BL       Usb2ComDrvInit ; 0x8001138
        0x08000482:    f000fba3    ....    BL       RtcDrvInit ; 0x8000bcc
        0x08000486:    f000fc28    ..(.    BL       SensorDrvInit ; 0x8000cda
        0x0800048a:    f000f805    ....    BL       EepromDrvInit ; 0x8000498
        0x0800048e:    f000fae2    ....    BL       NorflashDrvInit ; 0x8000a56
        0x08000492:    f000fcc7    ....    BL       SystickInit ; 0x8000e24
        0x08000496:    bd10        ..      POP      {r4,pc}
    i.EepromDrvInit
    EepromDrvInit
        0x08000498:    b510        ..      PUSH     {r4,lr}
        0x0800049a:    f000f8cb    ....    BL       GpioInit ; 0x8000634
        0x0800049e:    bd10        ..      POP      {r4,pc}
    i.EnableNorflashWrite
    EnableNorflashWrite
        0x080004a0:    b510        ..      PUSH     {r4,lr}
        0x080004a2:    f000fc09    ....    BL       SPIStart ; 0x8000cb8
        0x080004a6:    2006        .       MOVS     r0,#6
        0x080004a8:    f000fbe4    ....    BL       SPIReadWriteByte ; 0x8000c74
        0x080004ac:    f000fc0c    ....    BL       SPIStop ; 0x8000cc8
        0x080004b0:    bd10        ..      POP      {r4,pc}
    i.EraseNorflashForWrite
    EraseNorflashForWrite
        0x080004b2:    e92d41f0    -..A    PUSH     {r4-r8,lr}
        0x080004b6:    4605        .F      MOV      r5,r0
        0x080004b8:    460c        .F      MOV      r4,r1
        0x080004ba:    b90c        ..      CBNZ     r4,0x80004c0 ; EraseNorflashForWrite + 14
        0x080004bc:    e8bd81f0    ....    POP      {r4-r8,pc}
        0x080004c0:    b2ee        ..      UXTB     r6,r5
        0x080004c2:    f5c65080    ...P    RSB      r0,r6,#0x1000
        0x080004c6:    42a0        .B      CMP      r0,r4
        0x080004c8:    d21c        ..      BCS      0x8000504 ; EraseNorflashForWrite + 82
        0x080004ca:    4628        (F      MOV      r0,r5
        0x080004cc:    f000f81f    ....    BL       EraseNorflashSector ; 0x800050e
        0x080004d0:    f5c65080    ...P    RSB      r0,r6,#0x1000
        0x080004d4:    4405        .D      ADD      r5,r5,r0
        0x080004d6:    f5c65080    ...P    RSB      r0,r6,#0x1000
        0x080004da:    1a24        $.      SUBS     r4,r4,r0
        0x080004dc:    f3c43707    ...7    UBFX     r7,r4,#12,#8
        0x080004e0:    e004        ..      B        0x80004ec ; EraseNorflashForWrite + 58
        0x080004e2:    4628        (F      MOV      r0,r5
        0x080004e4:    f000f813    ....    BL       EraseNorflashSector ; 0x800050e
        0x080004e8:    f5055580    ...U    ADD      r5,r5,#0x1000
        0x080004ec:    1e38        8.      SUBS     r0,r7,#0
        0x080004ee:    f1a70101    ....    SUB      r1,r7,#1
        0x080004f2:    b2cf        ..      UXTB     r7,r1
        0x080004f4:    d1f5        ..      BNE      0x80004e2 ; EraseNorflashForWrite + 48
        0x080004f6:    f3c4000b    ....    UBFX     r0,r4,#0,#12
        0x080004fa:    b130        0.      CBZ      r0,0x800050a ; EraseNorflashForWrite + 88
        0x080004fc:    4628        (F      MOV      r0,r5
        0x080004fe:    f000f806    ....    BL       EraseNorflashSector ; 0x800050e
        0x08000502:    e002        ..      B        0x800050a ; EraseNorflashForWrite + 88
        0x08000504:    4628        (F      MOV      r0,r5
        0x08000506:    f000f802    ....    BL       EraseNorflashSector ; 0x800050e
        0x0800050a:    bf00        ..      NOP      
        0x0800050c:    e7d6        ..      B        0x80004bc ; EraseNorflashForWrite + 10
    i.EraseNorflashSector
    EraseNorflashSector
        0x0800050e:    b510        ..      PUSH     {r4,lr}
        0x08000510:    4604        .F      MOV      r4,r0
        0x08000512:    f7ffffc5    ....    BL       EnableNorflashWrite ; 0x80004a0
        0x08000516:    f000fbcf    ....    BL       SPIStart ; 0x8000cb8
        0x0800051a:    2020                MOVS     r0,#0x20
        0x0800051c:    f000fbaa    ....    BL       SPIReadWriteByte ; 0x8000c74
        0x08000520:    f3c44007    ...@    UBFX     r0,r4,#16,#8
        0x08000524:    f000fba6    ....    BL       SPIReadWriteByte ; 0x8000c74
        0x08000528:    f3c42007    ...     UBFX     r0,r4,#8,#8
        0x0800052c:    f000fba2    ....    BL       SPIReadWriteByte ; 0x8000c74
        0x08000530:    b2e0        ..      UXTB     r0,r4
        0x08000532:    f000fb9f    ....    BL       SPIReadWriteByte ; 0x8000c74
        0x08000536:    f000fbc7    ....    BL       SPIStop ; 0x8000cc8
        0x0800053a:    f000fe47    ..G.    BL       WaitNorflashWriteEnd ; 0x80011cc
        0x0800053e:    bd10        ..      POP      {r4,pc}
    i.GetAdcVal
    GetAdcVal
        0x08000540:    b510        ..      PUSH     {r4,lr}
        0x08000542:    2101        .!      MOVS     r1,#1
        0x08000544:    4806        .H      LDR      r0,[pc,#24] ; [0x8000560] = 0x40012800
        0x08000546:    f001fac1    ....    BL       adc_software_trigger_enable ; 0x8001acc
        0x0800054a:    bf00        ..      NOP      
        0x0800054c:    2102        .!      MOVS     r1,#2
        0x0800054e:    4804        .H      LDR      r0,[pc,#16] ; [0x8000560] = 0x40012800
        0x08000550:    f001fa28    ..(.    BL       adc_flag_get ; 0x80019a4
        0x08000554:    2800        .(      CMP      r0,#0
        0x08000556:    d0f9        ..      BEQ      0x800054c ; GetAdcVal + 12
        0x08000558:    4801        .H      LDR      r0,[pc,#4] ; [0x8000560] = 0x40012800
        0x0800055a:    f001fab3    ....    BL       adc_regular_data_read ; 0x8001ac4
        0x0800055e:    bd10        ..      POP      {r4,pc}
    $d
        0x08000560:    40012800    .(.@    DCD    1073817600
    $t
    i.GetHumiData
    GetHumiData
        0x08000564:    4803        .H      LDR      r0,[pc,#12] ; [0x8000574] = 0x20000186
        0x08000566:    7800        .x      LDRB     r0,[r0,#0]
        0x08000568:    ee000a10    ....    VMOV     s0,r0
        0x0800056c:    eeb80a40    ..@.    VCVT.F32.U32 s0,s0
        0x08000570:    4770        pG      BX       lr
    $d
        0x08000572:    0000        ..      DCW    0
        0x08000574:    20000186    ...     DCD    536871302
    $t
    i.GetKeyVal
    GetKeyVal
        0x08000578:    b570        p.      PUSH     {r4-r6,lr}
        0x0800057a:    2500        .%      MOVS     r5,#0
        0x0800057c:    2400        .$      MOVS     r4,#0
        0x0800057e:    e007        ..      B        0x8000590 ; GetKeyVal + 24
        0x08000580:    4620         F      MOV      r0,r4
        0x08000582:    f000f95d    ..].    BL       KeyScan ; 0x8000840
        0x08000586:    4605        .F      MOV      r5,r0
        0x08000588:    b105        ..      CBZ      r5,0x800058c ; GetKeyVal + 20
        0x0800058a:    e003        ..      B        0x8000594 ; GetKeyVal + 28
        0x0800058c:    1c60        `.      ADDS     r0,r4,#1
        0x0800058e:    b2c4        ..      UXTB     r4,r0
        0x08000590:    2c03        .,      CMP      r4,#3
        0x08000592:    d3f5        ..      BCC      0x8000580 ; GetKeyVal + 8
        0x08000594:    bf00        ..      NOP      
        0x08000596:    4628        (F      MOV      r0,r5
        0x08000598:    bd70        p.      POP      {r4-r6,pc}
    i.GetSensorData
    GetSensorData
        0x0800059a:    b510        ..      PUSH     {r4,lr}
        0x0800059c:    4604        .F      MOV      r4,r0
        0x0800059e:    f000f811    ....    BL       GetTempData ; 0x80005c4
        0x080005a2:    ed840a00    ....    VSTR     s0,[r4,#0]
        0x080005a6:    f7ffffdd    ....    BL       GetHumiData ; 0x8000564
        0x080005aa:    eebc0ac0    ....    VCVT.U32.F32 s0,s0
        0x080005ae:    ee100a10    ....    VMOV     r0,s0
        0x080005b2:    7120         q      STRB     r0,[r4,#4]
        0x080005b4:    bd10        ..      POP      {r4,pc}
        0x080005b6:    0000        ..      MOVS     r0,r0
    i.GetSysRunTime
    GetSysRunTime
        0x080005b8:    4901        .I      LDR      r1,[pc,#4] ; [0x80005c0] = 0x20000190
        0x080005ba:    6808        .h      LDR      r0,[r1,#0]
        0x080005bc:    6849        Ih      LDR      r1,[r1,#4]
        0x080005be:    4770        pG      BX       lr
    $d
        0x080005c0:    20000190    ...     DCD    536871312
    $t
    i.GetTempData
    GetTempData
        0x080005c4:    4801        .H      LDR      r0,[pc,#4] ; [0x80005cc] = 0x2000017c
        0x080005c6:    ed900a00    ....    VLDR     s0,[r0,#0]
        0x080005ca:    4770        pG      BX       lr
    $d
        0x080005cc:    2000017c    |..     DCD    536871292
    $t
    i.GpioInit
    GpioInit
        0x080005d0:    b510        ..      PUSH     {r4,lr}
        0x080005d2:    f2406004    @..`    MOV      r0,#0x604
        0x080005d6:    f002f895    ....    BL       rcu_periph_clock_enable ; 0x8002704
        0x080005da:    2308        .#      MOVS     r3,#8
        0x080005dc:    2201        ."      MOVS     r2,#1
        0x080005de:    2100        .!      MOVS     r1,#0
        0x080005e0:    4801        .H      LDR      r0,[pc,#4] ; [0x80005e8] = 0x40011000
        0x080005e2:    f001fdd8    ....    BL       gpio_init ; 0x8002196
        0x080005e6:    bd10        ..      POP      {r4,pc}
    $d
        0x080005e8:    40011000    ...@    DCD    1073811456
    $t
    i.GpioInit
    GpioInit
        0x080005ec:    b510        ..      PUSH     {r4,lr}
        0x080005ee:    f2406004    @..`    MOV      r0,#0x604
        0x080005f2:    f002f887    ....    BL       rcu_periph_clock_enable ; 0x8002704
        0x080005f6:    2310        .#      MOVS     r3,#0x10
        0x080005f8:    2204        ."      MOVS     r2,#4
        0x080005fa:    2100        .!      MOVS     r1,#0
        0x080005fc:    480b        .H      LDR      r0,[pc,#44] ; [0x800062c] = 0x40011000
        0x080005fe:    f001fdca    ....    BL       gpio_init ; 0x8002196
        0x08000602:    f2406003    @..`    MOV      r0,#0x603
        0x08000606:    f002f87d    ..}.    BL       rcu_periph_clock_enable ; 0x8002704
        0x0800060a:    2303        .#      MOVS     r3,#3
        0x0800060c:    461a        .F      MOV      r2,r3
        0x0800060e:    2110        .!      MOVS     r1,#0x10
        0x08000610:    4807        .H      LDR      r0,[pc,#28] ; [0x8000630] = 0x40010c00
        0x08000612:    f001fdc0    ....    BL       gpio_init ; 0x8002196
        0x08000616:    2201        ."      MOVS     r2,#1
        0x08000618:    4611        .F      MOV      r1,r2
        0x0800061a:    4805        .H      LDR      r0,[pc,#20] ; [0x8000630] = 0x40010c00
        0x0800061c:    f001fdb6    ....    BL       gpio_bit_write ; 0x800218c
        0x08000620:    2200        ."      MOVS     r2,#0
        0x08000622:    2102        .!      MOVS     r1,#2
        0x08000624:    4802        .H      LDR      r0,[pc,#8] ; [0x8000630] = 0x40010c00
        0x08000626:    f001fdb1    ....    BL       gpio_bit_write ; 0x800218c
        0x0800062a:    bd10        ..      POP      {r4,pc}
    $d
        0x0800062c:    40011000    ...@    DCD    1073811456
        0x08000630:    40010c00    ...@    DCD    1073810432
    $t
    i.GpioInit
    GpioInit
        0x08000634:    b510        ..      PUSH     {r4,lr}
        0x08000636:    f2406003    @..`    MOV      r0,#0x603
        0x0800063a:    f002f863    ..c.    BL       rcu_periph_clock_enable ; 0x8002704
        0x0800063e:    23c0        .#      MOVS     r3,#0xc0
        0x08000640:    2201        ."      MOVS     r2,#1
        0x08000642:    2114        .!      MOVS     r1,#0x14
        0x08000644:    4801        .H      LDR      r0,[pc,#4] ; [0x800064c] = 0x40010c00
        0x08000646:    f001fda6    ....    BL       gpio_init ; 0x8002196
        0x0800064a:    bd10        ..      POP      {r4,pc}
    $d
        0x0800064c:    40010c00    ...@    DCD    1073810432
    $t
    i.GpioInit
    GpioInit
        0x08000650:    b500        ..      PUSH     {lr}
        0x08000652:    b087        ..      SUB      sp,sp,#0x1c
        0x08000654:    f2406006    @..`    MOV      r0,#0x606
        0x08000658:    f002f854    ..T.    BL       rcu_periph_clock_enable ; 0x8002704
        0x0800065c:    2304        .#      MOVS     r3,#4
        0x0800065e:    2203        ."      MOVS     r2,#3
        0x08000660:    2110        .!      MOVS     r1,#0x10
        0x08000662:    481b        .H      LDR      r0,[pc,#108] ; [0x80006d0] = 0x40011800
        0x08000664:    f001fd97    ....    BL       gpio_init ; 0x8002196
        0x08000668:    2104        .!      MOVS     r1,#4
        0x0800066a:    4819        .H      LDR      r0,[pc,#100] ; [0x80006d0] = 0x40011800
        0x0800066c:    f001fd8c    ....    BL       gpio_bit_set ; 0x8002188
        0x08000670:    f2406003    @..`    MOV      r0,#0x603
        0x08000674:    f002f846    ..F.    BL       rcu_periph_clock_enable ; 0x8002704
        0x08000678:    f240700e    @..p    MOV      r0,#0x70e
        0x0800067c:    f002f842    ..B.    BL       rcu_periph_clock_enable ; 0x8002704
        0x08000680:    f44f4320    O. C    MOV      r3,#0xa000
        0x08000684:    2203        ."      MOVS     r2,#3
        0x08000686:    2118        .!      MOVS     r1,#0x18
        0x08000688:    4812        .H      LDR      r0,[pc,#72] ; [0x80006d4] = 0x40010c00
        0x0800068a:    f001fd84    ....    BL       gpio_init ; 0x8002196
        0x0800068e:    f44f4380    O..C    MOV      r3,#0x4000
        0x08000692:    2203        ."      MOVS     r2,#3
        0x08000694:    2148        H!      MOVS     r1,#0x48
        0x08000696:    480f        .H      LDR      r0,[pc,#60] ; [0x80006d4] = 0x40010c00
        0x08000698:    f001fd7d    ..}.    BL       gpio_init ; 0x8002196
        0x0800069c:    4668        hF      MOV      r0,sp
        0x0800069e:    f002f8e7    ....    BL       spi_struct_para_init ; 0x8002870
        0x080006a2:    2000        .       MOVS     r0,#0
        0x080006a4:    9001        ..      STR      r0,[sp,#4]
        0x080006a6:    f44f7082    O..p    MOV      r0,#0x104
        0x080006aa:    9000        ..      STR      r0,[sp,#0]
        0x080006ac:    2000        .       MOVS     r0,#0
        0x080006ae:    9002        ..      STR      r0,[sp,#8]
        0x080006b0:    9005        ..      STR      r0,[sp,#0x14]
        0x080006b2:    f44f7000    O..p    MOV      r0,#0x200
        0x080006b6:    9003        ..      STR      r0,[sp,#0xc]
        0x080006b8:    2000        .       MOVS     r0,#0
        0x080006ba:    9006        ..      STR      r0,[sp,#0x18]
        0x080006bc:    9004        ..      STR      r0,[sp,#0x10]
        0x080006be:    4669        iF      MOV      r1,sp
        0x080006c0:    4805        .H      LDR      r0,[pc,#20] ; [0x80006d8] = 0x40003800
        0x080006c2:    f002f8bc    ....    BL       spi_init ; 0x800283e
        0x080006c6:    4804        .H      LDR      r0,[pc,#16] ; [0x80006d8] = 0x40003800
        0x080006c8:    f002f8a6    ....    BL       spi_enable ; 0x8002818
        0x080006cc:    b007        ..      ADD      sp,sp,#0x1c
        0x080006ce:    bd00        ..      POP      {pc}
    $d
        0x080006d0:    40011800    ...@    DCD    1073813504
        0x080006d4:    40010c00    ...@    DCD    1073810432
        0x080006d8:    40003800    .8.@    DCD    1073756160
    $t
    i.GpioInit
    GpioInit
        0x080006dc:    b510        ..      PUSH     {r4,lr}
        0x080006de:    4909        .I      LDR      r1,[pc,#36] ; [0x8000704] = 0x200001bc
        0x080006e0:    88c8        ..      LDRH     r0,[r1,#6]
        0x080006e2:    f002f80f    ....    BL       rcu_periph_clock_enable ; 0x8002704
        0x080006e6:    4907        .I      LDR      r1,[pc,#28] ; [0x8000704] = 0x200001bc
        0x080006e8:    68cb        .h      LDR      r3,[r1,#0xc]
        0x080006ea:    2201        ."      MOVS     r2,#1
        0x080006ec:    6888        .h      LDR      r0,[r1,#8]
        0x080006ee:    2118        .!      MOVS     r1,#0x18
        0x080006f0:    f001fd51    ..Q.    BL       gpio_init ; 0x8002196
        0x080006f4:    4903        .I      LDR      r1,[pc,#12] ; [0x8000704] = 0x200001bc
        0x080006f6:    690b        .i      LDR      r3,[r1,#0x10]
        0x080006f8:    2201        ."      MOVS     r2,#1
        0x080006fa:    6888        .h      LDR      r0,[r1,#8]
        0x080006fc:    2148        H!      MOVS     r1,#0x48
        0x080006fe:    f001fd4a    ..J.    BL       gpio_init ; 0x8002196
        0x08000702:    bd10        ..      POP      {r4,pc}
    $d
        0x08000704:    200001bc    ...     DCD    536871356
    $t
    i.HardFault_Handler
    HardFault_Handler
        0x08000708:    bf00        ..      NOP      
        0x0800070a:    e7fe        ..      B        0x800070a ; HardFault_Handler + 2
    i.HmiTask
    HmiTask
        0x0800070c:    b510        ..      PUSH     {r4,lr}
        0x0800070e:    f7ffff33    ..3.    BL       GetKeyVal ; 0x8000578
        0x08000712:    4604        .F      MOV      r4,r0
        0x08000714:    2c81        .,      CMP      r4,#0x81
        0x08000716:    d01b        ..      BEQ      0x8000750 ; HmiTask + 68
        0x08000718:    dc06        ..      BGT      0x8000728 ; HmiTask + 28
        0x0800071a:    2c01        .,      CMP      r4,#1
        0x0800071c:    d009        ..      BEQ      0x8000732 ; HmiTask + 38
        0x0800071e:    2c02        .,      CMP      r4,#2
        0x08000720:    d01a        ..      BEQ      0x8000758 ; HmiTask + 76
        0x08000722:    2c03        .,      CMP      r4,#3
        0x08000724:    d128        (.      BNE      0x8000778 ; HmiTask + 108
        0x08000726:    e01f        ..      B        0x8000768 ; HmiTask + 92
        0x08000728:    2c82        .,      CMP      r4,#0x82
        0x0800072a:    d019        ..      BEQ      0x8000760 ; HmiTask + 84
        0x0800072c:    2c83        .,      CMP      r4,#0x83
        0x0800072e:    d123        #.      BNE      0x8000778 ; HmiTask + 108
        0x08000730:    e01e        ..      B        0x8000770 ; HmiTask + 100
        0x08000732:    2000        .       MOVS     r0,#0
        0x08000734:    f000fc80    ....    BL       TurnOnLed ; 0x8001038
        0x08000738:    2002        .       MOVS     r0,#2
        0x0800073a:    f000fad5    ....    BL       SetModbusParam ; 0x8000ce8
        0x0800073e:    b118        ..      CBZ      r0,0x8000748 ; HmiTask + 60
        0x08000740:    a00f        ..      ADR      r0,{pc}+0x40 ; 0x8000780
        0x08000742:    f000fe0b    ....    BL       __0printf$8 ; 0x800135c
        0x08000746:    e002        ..      B        0x800074e ; HmiTask + 66
        0x08000748:    a013        ..      ADR      r0,{pc}+0x50 ; 0x8000798
        0x0800074a:    f000fe07    ....    BL       __0printf$8 ; 0x800135c
        0x0800074e:    e014        ..      B        0x800077a ; HmiTask + 110
        0x08000750:    2000        .       MOVS     r0,#0
        0x08000752:    f000fc5b    ..[.    BL       TurnOffLed ; 0x800100c
        0x08000756:    e010        ..      B        0x800077a ; HmiTask + 110
        0x08000758:    2001        .       MOVS     r0,#1
        0x0800075a:    f000fc6d    ..m.    BL       TurnOnLed ; 0x8001038
        0x0800075e:    e00c        ..      B        0x800077a ; HmiTask + 110
        0x08000760:    2001        .       MOVS     r0,#1
        0x08000762:    f000fc53    ..S.    BL       TurnOffLed ; 0x800100c
        0x08000766:    e008        ..      B        0x800077a ; HmiTask + 110
        0x08000768:    2002        .       MOVS     r0,#2
        0x0800076a:    f000fc65    ..e.    BL       TurnOnLed ; 0x8001038
        0x0800076e:    e004        ..      B        0x800077a ; HmiTask + 110
        0x08000770:    2002        .       MOVS     r0,#2
        0x08000772:    f000fc4b    ..K.    BL       TurnOffLed ; 0x800100c
        0x08000776:    e000        ..      B        0x800077a ; HmiTask + 110
        0x08000778:    bf00        ..      NOP      
        0x0800077a:    bf00        ..      NOP      
        0x0800077c:    bd10        ..      POP      {r4,pc}
    $d
        0x0800077e:    0000        ..      DCW    0
        0x08000780:    4d746553    SetM    DCD    1299473747
        0x08000784:    7562646f    odbu    DCD    1969382511
        0x08000788:    72615073    sPar    DCD    1918980211
        0x0800078c:    73206d61    am s    DCD    1931504993
        0x08000790:    73656375    uces    DCD    1936024437
        0x08000794:    00000a73    s...    DCD    2675
        0x08000798:    4d746553    SetM    DCD    1299473747
        0x0800079c:    7562646f    odbu    DCD    1969382511
        0x080007a0:    72615073    sPar    DCD    1918980211
        0x080007a4:    66206d61    am f    DCD    1713401185
        0x080007a8:    0a6c6961    ail.    DCD    174877025
        0x080007ac:    00000000    ....    DCD    0
    $t
    i.HumiDrvInit
    HumiDrvInit
        0x080007b0:    b510        ..      PUSH     {r4,lr}
        0x080007b2:    f7ffff1b    ....    BL       GpioInit ; 0x80005ec
        0x080007b6:    f7fffdc5    ....    BL       AdcInit ; 0x8000344
        0x080007ba:    f44f707a    O.zp    MOV      r0,#0x3e8
        0x080007be:    f000fc01    ....    BL       TimerInit ; 0x8000fc4
        0x080007c2:    bd10        ..      POP      {r4,pc}
    i.InitSysParam
    InitSysParam
        0x080007c4:    b508        ..      PUSH     {r3,lr}
        0x080007c6:    4668        hF      MOV      r0,sp
        0x080007c8:    f000f9ea    ....    BL       ReadSysParam ; 0x8000ba0
        0x080007cc:    b168        h.      CBZ      r0,0x80007ea ; InitSysParam + 38
        0x080007ce:    f8bd0000    ....    LDRH     r0,[sp,#0]
        0x080007d2:    f645215a    E.Z!    MOV      r1,#0x5a5a
        0x080007d6:    4288        .B      CMP      r0,r1
        0x080007d8:    d107        ..      BNE      0x80007ea ; InitSysParam + 38
        0x080007da:    4807        .H      LDR      r0,[pc,#28] ; [0x80007f8] = 0x20000024
        0x080007dc:    9900        ..      LDR      r1,[sp,#0]
        0x080007de:    6001        .`      STR      r1,[r0,#0]
        0x080007e0:    4601        .F      MOV      r1,r0
        0x080007e2:    7888        .x      LDRB     r0,[r1,#2]
        0x080007e4:    f001fca0    ....    BL       eMBSetSlaveAddr ; 0x8002128
        0x080007e8:    bd08        ..      POP      {r3,pc}
        0x080007ea:    4803        .H      LDR      r0,[pc,#12] ; [0x80007f8] = 0x20000024
        0x080007ec:    4903        .I      LDR      r1,[pc,#12] ; [0x80007fc] = 0x8003154
        0x080007ee:    6809        .h      LDR      r1,[r1,#0]
        0x080007f0:    6001        .`      STR      r1,[r0,#0]
        0x080007f2:    bf00        ..      NOP      
        0x080007f4:    e7f8        ..      B        0x80007e8 ; InitSysParam + 36
    $d
        0x080007f6:    0000        ..      DCW    0
        0x080007f8:    20000024    $..     DCD    536870948
        0x080007fc:    08003154    T1..    DCD    134230356
    $t
    i.KeyDrvInit
    KeyDrvInit
        0x08000800:    b510        ..      PUSH     {r4,lr}
        0x08000802:    2400        .$      MOVS     r4,#0
        0x08000804:    e017        ..      B        0x8000836 ; KeyDrvInit + 54
        0x08000806:    eb040144    ..D.    ADD      r1,r4,r4,LSL #1
        0x0800080a:    4a0c        .J      LDR      r2,[pc,#48] ; [0x800083c] = 0x20000134
        0x0800080c:    f8320021    2.!.    LDRH     r0,[r2,r1,LSL #2]
        0x08000810:    f001ff78    ..x.    BL       rcu_periph_clock_enable ; 0x8002704
        0x08000814:    eb040144    ..D.    ADD      r1,r4,r4,LSL #1
        0x08000818:    4a08        .J      LDR      r2,[pc,#32] ; [0x800083c] = 0x20000134
        0x0800081a:    eb020181    ....    ADD      r1,r2,r1,LSL #2
        0x0800081e:    688b        .h      LDR      r3,[r1,#8]
        0x08000820:    eb040144    ..D.    ADD      r1,r4,r4,LSL #1
        0x08000824:    eb020181    ....    ADD      r1,r2,r1,LSL #2
        0x08000828:    2202        ."      MOVS     r2,#2
        0x0800082a:    6848        Hh      LDR      r0,[r1,#4]
        0x0800082c:    2104        .!      MOVS     r1,#4
        0x0800082e:    f001fcb2    ....    BL       gpio_init ; 0x8002196
        0x08000832:    1c60        `.      ADDS     r0,r4,#1
        0x08000834:    b2c4        ..      UXTB     r4,r0
        0x08000836:    2c03        .,      CMP      r4,#3
        0x08000838:    d3e5        ..      BCC      0x8000806 ; KeyDrvInit + 6
        0x0800083a:    bd10        ..      POP      {r4,pc}
    $d
        0x0800083c:    20000134    4..     DCD    536871220
    $t
    i.KeyScan
    KeyScan
        0x08000840:    e92d41f0    -..A    PUSH     {r4-r8,lr}
        0x08000844:    4604        .F      MOV      r4,r0
        0x08000846:    eb040244    ..D.    ADD      r2,r4,r4,LSL #1
        0x0800084a:    4b3d        =K      LDR      r3,[pc,#244] ; [0x8000940] = 0x20000134
        0x0800084c:    eb030282    ....    ADD      r2,r3,r2,LSL #2
        0x08000850:    6891        .h      LDR      r1,[r2,#8]
        0x08000852:    eb040244    ..D.    ADD      r2,r4,r4,LSL #1
        0x08000856:    eb030282    ....    ADD      r2,r3,r2,LSL #2
        0x0800085a:    6850        Ph      LDR      r0,[r2,#4]
        0x0800085c:    f001fcf9    ....    BL       gpio_input_bit_get ; 0x8002252
        0x08000860:    4607        .F      MOV      r7,r0
        0x08000862:    4838        8H      LDR      r0,[pc,#224] ; [0x8000944] = 0x200002e0
        0x08000864:    eb001004    ....    ADD      r0,r0,r4,LSL #4
        0x08000868:    7800        .x      LDRB     r0,[r0,#0]
        0x0800086a:    b130        0.      CBZ      r0,0x800087a ; KeyScan + 58
        0x0800086c:    2801        .(      CMP      r0,#1
        0x0800086e:    d012        ..      BEQ      0x8000896 ; KeyScan + 86
        0x08000870:    2802        .(      CMP      r0,#2
        0x08000872:    d02e        ..      BEQ      0x80008d2 ; KeyScan + 146
        0x08000874:    2803        .(      CMP      r0,#3
        0x08000876:    d159        Y.      BNE      0x800092c ; KeyScan + 236
        0x08000878:    e04d        M.      B        0x8000916 ; KeyScan + 214
        0x0800087a:    b95f        _.      CBNZ     r7,0x8000894 ; KeyScan + 84
        0x0800087c:    2001        .       MOVS     r0,#1
        0x0800087e:    4931        1I      LDR      r1,[pc,#196] ; [0x8000944] = 0x200002e0
        0x08000880:    eb011104    ....    ADD      r1,r1,r4,LSL #4
        0x08000884:    7008        .p      STRB     r0,[r1,#0]
        0x08000886:    f7fffe97    ....    BL       GetSysRunTime ; 0x80005b8
        0x0800088a:    4a2e        .J      LDR      r2,[pc,#184] ; [0x8000944] = 0x200002e0
        0x0800088c:    eb021204    ....    ADD      r2,r2,r4,LSL #4
        0x08000890:    e9c20102    ....    STRD     r0,r1,[r2,#8]
        0x08000894:    e050        P.      B        0x8000938 ; KeyScan + 248
        0x08000896:    b9b7        ..      CBNZ     r7,0x80008c6 ; KeyScan + 134
        0x08000898:    f7fffe8e    ....    BL       GetSysRunTime ; 0x80005b8
        0x0800089c:    4605        .F      MOV      r5,r0
        0x0800089e:    460e        .F      MOV      r6,r1
        0x080008a0:    4828        (H      LDR      r0,[pc,#160] ; [0x8000944] = 0x200002e0
        0x080008a2:    eb001004    ....    ADD      r0,r0,r4,LSL #4
        0x080008a6:    e9d03202    ...2    LDRD     r3,r2,[r0,#8]
        0x080008aa:    1aeb        ..      SUBS     r3,r5,r3
        0x080008ac:    eb660102    f...    SBC      r1,r6,r2
        0x080008b0:    2000        .       MOVS     r0,#0
        0x080008b2:    f1d3020a    ....    RSBS     r2,r3,#0xa
        0x080008b6:    4188        .A      SBCS     r0,r0,r1
        0x080008b8:    d20a        ..      BCS      0x80008d0 ; KeyScan + 144
        0x080008ba:    2002        .       MOVS     r0,#2
        0x080008bc:    4921        !I      LDR      r1,[pc,#132] ; [0x8000944] = 0x200002e0
        0x080008be:    eb011104    ....    ADD      r1,r1,r4,LSL #4
        0x080008c2:    7008        .p      STRB     r0,[r1,#0]
        0x080008c4:    e004        ..      B        0x80008d0 ; KeyScan + 144
        0x080008c6:    2000        .       MOVS     r0,#0
        0x080008c8:    491e        .I      LDR      r1,[pc,#120] ; [0x8000944] = 0x200002e0
        0x080008ca:    eb011104    ....    ADD      r1,r1,r4,LSL #4
        0x080008ce:    7008        .p      STRB     r0,[r1,#0]
        0x080008d0:    e032        2.      B        0x8000938 ; KeyScan + 248
        0x080008d2:    b147        G.      CBZ      r7,0x80008e6 ; KeyScan + 166
        0x080008d4:    2000        .       MOVS     r0,#0
        0x080008d6:    491b        .I      LDR      r1,[pc,#108] ; [0x8000944] = 0x200002e0
        0x080008d8:    eb011104    ....    ADD      r1,r1,r4,LSL #4
        0x080008dc:    7008        .p      STRB     r0,[r1,#0]
        0x080008de:    1c60        `.      ADDS     r0,r4,#1
        0x080008e0:    b2c0        ..      UXTB     r0,r0
        0x080008e2:    e8bd81f0    ....    POP      {r4-r8,pc}
        0x080008e6:    f7fffe67    ..g.    BL       GetSysRunTime ; 0x80005b8
        0x080008ea:    4605        .F      MOV      r5,r0
        0x080008ec:    460e        .F      MOV      r6,r1
        0x080008ee:    4815        .H      LDR      r0,[pc,#84] ; [0x8000944] = 0x200002e0
        0x080008f0:    eb001004    ....    ADD      r0,r0,r4,LSL #4
        0x080008f4:    e9d03c02    ...<    LDRD     r3,r12,[r0,#8]
        0x080008f8:    1aea        ..      SUBS     r2,r5,r3
        0x080008fa:    eb66010c    f...    SBC      r1,r6,r12
        0x080008fe:    f44f737a    O.zs    MOV      r3,#0x3e8
        0x08000902:    2000        .       MOVS     r0,#0
        0x08000904:    1a9a        ..      SUBS     r2,r3,r2
        0x08000906:    4188        .A      SBCS     r0,r0,r1
        0x08000908:    d204        ..      BCS      0x8000914 ; KeyScan + 212
        0x0800090a:    2003        .       MOVS     r0,#3
        0x0800090c:    490d        .I      LDR      r1,[pc,#52] ; [0x8000944] = 0x200002e0
        0x0800090e:    eb011104    ....    ADD      r1,r1,r4,LSL #4
        0x08000912:    7008        .p      STRB     r0,[r1,#0]
        0x08000914:    e010        ..      B        0x8000938 ; KeyScan + 248
        0x08000916:    b147        G.      CBZ      r7,0x800092a ; KeyScan + 234
        0x08000918:    2000        .       MOVS     r0,#0
        0x0800091a:    490a        .I      LDR      r1,[pc,#40] ; [0x8000944] = 0x200002e0
        0x0800091c:    eb011104    ....    ADD      r1,r1,r4,LSL #4
        0x08000920:    7008        .p      STRB     r0,[r1,#0]
        0x08000922:    f1040081    ....    ADD      r0,r4,#0x81
        0x08000926:    b2c0        ..      UXTB     r0,r0
        0x08000928:    e7db        ..      B        0x80008e2 ; KeyScan + 162
        0x0800092a:    e005        ..      B        0x8000938 ; KeyScan + 248
        0x0800092c:    2000        .       MOVS     r0,#0
        0x0800092e:    4905        .I      LDR      r1,[pc,#20] ; [0x8000944] = 0x200002e0
        0x08000930:    eb011104    ....    ADD      r1,r1,r4,LSL #4
        0x08000934:    7008        .p      STRB     r0,[r1,#0]
        0x08000936:    bf00        ..      NOP      
        0x08000938:    bf00        ..      NOP      
        0x0800093a:    2000        .       MOVS     r0,#0
        0x0800093c:    e7d1        ..      B        0x80008e2 ; KeyScan + 162
    $d
        0x0800093e:    0000        ..      DCW    0
        0x08000940:    20000134    4..     DCD    536871220
        0x08000944:    200002e0    ...     DCD    536871648
    $t
    i.LedDrvInit
    LedDrvInit
        0x08000948:    b510        ..      PUSH     {r4,lr}
        0x0800094a:    2400        .$      MOVS     r4,#0
        0x0800094c:    e024        $.      B        0x8000998 ; LedDrvInit + 80
        0x0800094e:    eb040144    ..D.    ADD      r1,r4,r4,LSL #1
        0x08000952:    4a13        .J      LDR      r2,[pc,#76] ; [0x80009a0] = 0x20000158
        0x08000954:    f8320021    2.!.    LDRH     r0,[r2,r1,LSL #2]
        0x08000958:    f001fed4    ....    BL       rcu_periph_clock_enable ; 0x8002704
        0x0800095c:    eb040144    ..D.    ADD      r1,r4,r4,LSL #1
        0x08000960:    4a0f        .J      LDR      r2,[pc,#60] ; [0x80009a0] = 0x20000158
        0x08000962:    eb020181    ....    ADD      r1,r2,r1,LSL #2
        0x08000966:    688b        .h      LDR      r3,[r1,#8]
        0x08000968:    eb040144    ..D.    ADD      r1,r4,r4,LSL #1
        0x0800096c:    eb020181    ....    ADD      r1,r2,r1,LSL #2
        0x08000970:    2202        ."      MOVS     r2,#2
        0x08000972:    6848        Hh      LDR      r0,[r1,#4]
        0x08000974:    2110        .!      MOVS     r1,#0x10
        0x08000976:    f001fc0e    ....    BL       gpio_init ; 0x8002196
        0x0800097a:    eb040244    ..D.    ADD      r2,r4,r4,LSL #1
        0x0800097e:    4b08        .K      LDR      r3,[pc,#32] ; [0x80009a0] = 0x20000158
        0x08000980:    eb030282    ....    ADD      r2,r3,r2,LSL #2
        0x08000984:    6891        .h      LDR      r1,[r2,#8]
        0x08000986:    eb040244    ..D.    ADD      r2,r4,r4,LSL #1
        0x0800098a:    eb030282    ....    ADD      r2,r3,r2,LSL #2
        0x0800098e:    6850        Ph      LDR      r0,[r2,#4]
        0x08000990:    f001fbf8    ....    BL       gpio_bit_reset ; 0x8002184
        0x08000994:    1c60        `.      ADDS     r0,r4,#1
        0x08000996:    b2c4        ..      UXTB     r4,r0
        0x08000998:    2c03        .,      CMP      r4,#3
        0x0800099a:    d3d8        ..      BCC      0x800094e ; LedDrvInit + 6
        0x0800099c:    bd10        ..      POP      {r4,pc}
    $d
        0x0800099e:    0000        ..      DCW    0
        0x080009a0:    20000158    X..     DCD    536871256
    $t
    i.MemManage_Handler
    MemManage_Handler
        0x080009a4:    bf00        ..      NOP      
        0x080009a6:    e7fe        ..      B        0x80009a6 ; MemManage_Handler + 2
    i.ModbusAppInit
    ModbusAppInit
        0x080009a8:    b51f        ..      PUSH     {r0-r4,lr}
        0x080009aa:    4b04        .K      LDR      r3,[pc,#16] ; [0x80009bc] = 0x8003158
        0x080009ac:    cb0f        ..      LDM      r3,{r0-r3}
        0x080009ae:    e88d000f    ....    STM      sp,{r0-r3}
        0x080009b2:    4668        hF      MOV      r0,sp
        0x080009b4:    f000f838    ..8.    BL       ModbusSlaveInit ; 0x8000a28
        0x080009b8:    bd1f        ..      POP      {r0-r4,pc}
    $d
        0x080009ba:    0000        ..      DCW    0
        0x080009bc:    08003158    X1..    DCD    134230360
    $t
    i.ModbusGetHumi
    ModbusGetHumi
        0x080009c0:    b51c        ..      PUSH     {r2-r4,lr}
        0x080009c2:    4604        .F      MOV      r4,r0
        0x080009c4:    4668        hF      MOV      r0,sp
        0x080009c6:    f7fffde8    ....    BL       GetSensorData ; 0x800059a
        0x080009ca:    f89d0004    ....    LDRB     r0,[sp,#4]
        0x080009ce:    eb000080    ....    ADD      r0,r0,r0,LSL #2
        0x080009d2:    0040        @.      LSLS     r0,r0,#1
        0x080009d4:    8020         .      STRH     r0,[r4,#0]
        0x080009d6:    bd1c        ..      POP      {r2-r4,pc}
    i.ModbusGetTemp
    ModbusGetTemp
        0x080009d8:    b51c        ..      PUSH     {r2-r4,lr}
        0x080009da:    4604        .F      MOV      r4,r0
        0x080009dc:    4668        hF      MOV      r0,sp
        0x080009de:    f7fffddc    ....    BL       GetSensorData ; 0x800059a
        0x080009e2:    ed9d0a00    ....    VLDR     s0,[sp,#0]
        0x080009e6:    eef20a04    ....    VMOV.F32 s1,#10.00000000
        0x080009ea:    ee200a20     . .    VMUL.F32 s0,s0,s1
        0x080009ee:    eebc0ac0    ....    VCVT.U32.F32 s0,s0
        0x080009f2:    ee100a10    ....    VMOV     r0,s0
        0x080009f6:    8020         .      STRH     r0,[r4,#0]
        0x080009f8:    bd1c        ..      POP      {r2-r4,pc}
    i.ModbusSetLed1
    ModbusSetLed1
        0x080009fa:    b510        ..      PUSH     {r4,lr}
        0x080009fc:    4604        .F      MOV      r4,r0
        0x080009fe:    b91c        ..      CBNZ     r4,0x8000a08 ; ModbusSetLed1 + 14
        0x08000a00:    2000        .       MOVS     r0,#0
        0x08000a02:    f000fb03    ....    BL       TurnOffLed ; 0x800100c
        0x08000a06:    e002        ..      B        0x8000a0e ; ModbusSetLed1 + 20
        0x08000a08:    2000        .       MOVS     r0,#0
        0x08000a0a:    f000fb15    ....    BL       TurnOnLed ; 0x8001038
        0x08000a0e:    bd10        ..      POP      {r4,pc}
    i.ModbusSetLed2
    ModbusSetLed2
        0x08000a10:    b510        ..      PUSH     {r4,lr}
        0x08000a12:    4604        .F      MOV      r4,r0
        0x08000a14:    b91c        ..      CBNZ     r4,0x8000a1e ; ModbusSetLed2 + 14
        0x08000a16:    2001        .       MOVS     r0,#1
        0x08000a18:    f000faf8    ....    BL       TurnOffLed ; 0x800100c
        0x08000a1c:    e002        ..      B        0x8000a24 ; ModbusSetLed2 + 20
        0x08000a1e:    2001        .       MOVS     r0,#1
        0x08000a20:    f000fb0a    ....    BL       TurnOnLed ; 0x8001038
        0x08000a24:    bd10        ..      POP      {r4,pc}
        0x08000a26:    0000        ..      MOVS     r0,r0
    i.ModbusSlaveInit
    ModbusSlaveInit
        0x08000a28:    b538        8.      PUSH     {r3-r5,lr}
        0x08000a2a:    4604        .F      MOV      r4,r0
        0x08000a2c:    2000        .       MOVS     r0,#0
        0x08000a2e:    9000        ..      STR      r0,[sp,#0]
        0x08000a30:    7821        !x      LDRB     r1,[r4,#0]
        0x08000a32:    4602        .F      MOV      r2,r0
        0x08000a34:    6863        ch      LDR      r3,[r4,#4]
        0x08000a36:    f001f96d    ..m.    BL       eMBInit ; 0x8001d14
        0x08000a3a:    f001f8bf    ....    BL       eMBEnable ; 0x8001bbc
        0x08000a3e:    4802        .H      LDR      r0,[pc,#8] ; [0x8000a48] = 0x2000012c
        0x08000a40:    e9d41202    ....    LDRD     r1,r2,[r4,#8]
        0x08000a44:    c006        ..      STM      r0!,{r1,r2}
        0x08000a46:    bd38        8.      POP      {r3-r5,pc}
    $d
        0x08000a48:    2000012c    ,..     DCD    536871212
    $t
    i.ModbusTask
    ModbusTask
        0x08000a4c:    b510        ..      PUSH     {r4,lr}
        0x08000a4e:    f001f9d1    ....    BL       eMBPoll ; 0x8001df4
        0x08000a52:    bd10        ..      POP      {r4,pc}
    i.NMI_Handler
    NMI_Handler
        0x08000a54:    4770        pG      BX       lr
    i.NorflashDrvInit
    NorflashDrvInit
        0x08000a56:    b510        ..      PUSH     {r4,lr}
        0x08000a58:    f000f902    ....    BL       SPIInit ; 0x8000c60
        0x08000a5c:    bd10        ..      POP      {r4,pc}
    i.PendSV_Handler
    PendSV_Handler
        0x08000a5e:    4770        pG      BX       lr
    i.ProgramNorflashPage
    ProgramNorflashPage
        0x08000a60:    b570        p.      PUSH     {r4-r6,lr}
        0x08000a62:    4604        .F      MOV      r4,r0
        0x08000a64:    460d        .F      MOV      r5,r1
        0x08000a66:    4616        .F      MOV      r6,r2
        0x08000a68:    f7fffd1a    ....    BL       EnableNorflashWrite ; 0x80004a0
        0x08000a6c:    f000f924    ..$.    BL       SPIStart ; 0x8000cb8
        0x08000a70:    2002        .       MOVS     r0,#2
        0x08000a72:    f000f8ff    ....    BL       SPIReadWriteByte ; 0x8000c74
        0x08000a76:    f3c44007    ...@    UBFX     r0,r4,#16,#8
        0x08000a7a:    f000f8fb    ....    BL       SPIReadWriteByte ; 0x8000c74
        0x08000a7e:    f3c42007    ...     UBFX     r0,r4,#8,#8
        0x08000a82:    f000f8f7    ....    BL       SPIReadWriteByte ; 0x8000c74
        0x08000a86:    b2e0        ..      UXTB     r0,r4
        0x08000a88:    f000f8f4    ....    BL       SPIReadWriteByte ; 0x8000c74
        0x08000a8c:    e003        ..      B        0x8000a96 ; ProgramNorflashPage + 54
        0x08000a8e:    7828        (x      LDRB     r0,[r5,#0]
        0x08000a90:    f000f8f0    ....    BL       SPIReadWriteByte ; 0x8000c74
        0x08000a94:    1c6d        m.      ADDS     r5,r5,#1
        0x08000a96:    1e30        0.      SUBS     r0,r6,#0
        0x08000a98:    f1a60601    ....    SUB      r6,r6,#1
        0x08000a9c:    d1f7        ..      BNE      0x8000a8e ; ProgramNorflashPage + 46
        0x08000a9e:    f000f913    ....    BL       SPIStop ; 0x8000cc8
        0x08000aa2:    f000fb93    ....    BL       WaitNorflashWriteEnd ; 0x80011cc
        0x08000aa6:    bd70        p.      POP      {r4-r6,pc}
    i.ReadDataWithCheck
    ReadDataWithCheck
        0x08000aa8:    e92d41f0    -..A    PUSH     {r4-r8,lr}
        0x08000aac:    4606        .F      MOV      r6,r0
        0x08000aae:    460c        .F      MOV      r4,r1
        0x08000ab0:    4615        .F      MOV      r5,r2
        0x08000ab2:    462a        *F      MOV      r2,r5
        0x08000ab4:    4621        !F      MOV      r1,r4
        0x08000ab6:    4630        0F      MOV      r0,r6
        0x08000ab8:    f000f80e    ....    BL       ReadNorflashData ; 0x8000ad8
        0x08000abc:    1e69        i.      SUBS     r1,r5,#1
        0x08000abe:    4620         F      MOV      r0,r4
        0x08000ac0:    f7fffc84    ....    BL       CalcCrc8 ; 0x80003cc
        0x08000ac4:    4607        .F      MOV      r7,r0
        0x08000ac6:    1e68        h.      SUBS     r0,r5,#1
        0x08000ac8:    5c20         \      LDRB     r0,[r4,r0]
        0x08000aca:    42b8        .B      CMP      r0,r7
        0x08000acc:    d002        ..      BEQ      0x8000ad4 ; ReadDataWithCheck + 44
        0x08000ace:    2000        .       MOVS     r0,#0
        0x08000ad0:    e8bd81f0    ....    POP      {r4-r8,pc}
        0x08000ad4:    2001        .       MOVS     r0,#1
        0x08000ad6:    e7fb        ..      B        0x8000ad0 ; ReadDataWithCheck + 40
    i.ReadNorflashData
    ReadNorflashData
        0x08000ad8:    e92d41f0    -..A    PUSH     {r4-r8,lr}
        0x08000adc:    4604        .F      MOV      r4,r0
        0x08000ade:    460e        .F      MOV      r6,r1
        0x08000ae0:    4617        .F      MOV      r7,r2
        0x08000ae2:    f000f8e9    ....    BL       SPIStart ; 0x8000cb8
        0x08000ae6:    2003        .       MOVS     r0,#3
        0x08000ae8:    f000f8c4    ....    BL       SPIReadWriteByte ; 0x8000c74
        0x08000aec:    f3c44007    ...@    UBFX     r0,r4,#16,#8
        0x08000af0:    f000f8c0    ....    BL       SPIReadWriteByte ; 0x8000c74
        0x08000af4:    f3c42007    ...     UBFX     r0,r4,#8,#8
        0x08000af8:    f000f8bc    ....    BL       SPIReadWriteByte ; 0x8000c74
        0x08000afc:    b2e0        ..      UXTB     r0,r4
        0x08000afe:    f000f8b9    ....    BL       SPIReadWriteByte ; 0x8000c74
        0x08000b02:    2500        .%      MOVS     r5,#0
        0x08000b04:    e004        ..      B        0x8000b10 ; ReadNorflashData + 56
        0x08000b06:    20ff        .       MOVS     r0,#0xff
        0x08000b08:    f000f8b4    ....    BL       SPIReadWriteByte ; 0x8000c74
        0x08000b0c:    5570        pU      STRB     r0,[r6,r5]
        0x08000b0e:    1c6d        m.      ADDS     r5,r5,#1
        0x08000b10:    42bd        .B      CMP      r5,r7
        0x08000b12:    d3f8        ..      BCC      0x8000b06 ; ReadNorflashData + 46
        0x08000b14:    f000f8d8    ....    BL       SPIStop ; 0x8000cc8
        0x08000b18:    e8bd81f0    ....    POP      {r4-r8,pc}
    i.ReadRegsCb
    ReadRegsCb
        0x08000b1c:    e92d47f0    -..G    PUSH     {r4-r10,lr}
        0x08000b20:    4680        .F      MOV      r8,r0
        0x08000b22:    4689        .F      MOV      r9,r1
        0x08000b24:    4615        .F      MOV      r5,r2
        0x08000b26:    b915        ..      CBNZ     r5,0x8000b2e ; ReadRegsCb + 18
        0x08000b28:    2002        .       MOVS     r0,#2
        0x08000b2a:    e8bd87f0    ....    POP      {r4-r10,pc}
        0x08000b2e:    2400        .$      MOVS     r4,#0
        0x08000b30:    e02f        /.      B        0x8000b92 ; ReadRegsCb + 118
        0x08000b32:    2600        .&      MOVS     r6,#0
        0x08000b34:    2700        .'      MOVS     r7,#0
        0x08000b36:    e026        &.      B        0x8000b86 ; ReadRegsCb + 106
        0x08000b38:    4818        .H      LDR      r0,[pc,#96] ; [0x8000b9c] = 0x20000028
        0x08000b3a:    eb001007    ....    ADD      r0,r0,r7,LSL #4
        0x08000b3e:    8840        @.      LDRH     r0,[r0,#2]
        0x08000b40:    eb080104    ....    ADD      r1,r8,r4
        0x08000b44:    4288        .B      CMP      r0,r1
        0x08000b46:    d000        ..      BEQ      0x8000b4a ; ReadRegsCb + 46
        0x08000b48:    e01c        ..      B        0x8000b84 ; ReadRegsCb + 104
        0x08000b4a:    4814        .H      LDR      r0,[pc,#80] ; [0x8000b9c] = 0x20000028
        0x08000b4c:    eb001607    ....    ADD      r6,r0,r7,LSL #4
        0x08000b50:    7830        0x      LDRB     r0,[r6,#0]
        0x08000b52:    f0000001    ....    AND      r0,r0,#1
        0x08000b56:    b908        ..      CBNZ     r0,0x8000b5c ; ReadRegsCb + 64
        0x08000b58:    2002        .       MOVS     r0,#2
        0x08000b5a:    e7e6        ..      B        0x8000b2a ; ReadRegsCb + 14
        0x08000b5c:    68b0        .h      LDR      r0,[r6,#8]
        0x08000b5e:    b180        ..      CBZ      r0,0x8000b82 ; ReadRegsCb + 102
        0x08000b60:    2202        ."      MOVS     r2,#2
        0x08000b62:    fb025004    ...P    MLA      r0,r2,r4,r5
        0x08000b66:    68b1        .h      LDR      r1,[r6,#8]
        0x08000b68:    4788        .G      BLX      r1
        0x08000b6a:    f815a014    ....    LDRB     r10,[r5,r4,LSL #1]
        0x08000b6e:    0060        `.      LSLS     r0,r4,#1
        0x08000b70:    1c40        @.      ADDS     r0,r0,#1
        0x08000b72:    5c28        (\      LDRB     r0,[r5,r0]
        0x08000b74:    f8050014    ....    STRB     r0,[r5,r4,LSL #1]
        0x08000b78:    0060        `.      LSLS     r0,r4,#1
        0x08000b7a:    1c40        @.      ADDS     r0,r0,#1
        0x08000b7c:    f805a000    ....    STRB     r10,[r5,r0]
        0x08000b80:    bf00        ..      NOP      
        0x08000b82:    bf00        ..      NOP      
        0x08000b84:    1c7f        ..      ADDS     r7,r7,#1
        0x08000b86:    2f04        ./      CMP      r7,#4
        0x08000b88:    d3d6        ..      BCC      0x8000b38 ; ReadRegsCb + 28
        0x08000b8a:    b90e        ..      CBNZ     r6,0x8000b90 ; ReadRegsCb + 116
        0x08000b8c:    2001        .       MOVS     r0,#1
        0x08000b8e:    e7cc        ..      B        0x8000b2a ; ReadRegsCb + 14
        0x08000b90:    1c64        d.      ADDS     r4,r4,#1
        0x08000b92:    454c        LE      CMP      r4,r9
        0x08000b94:    d3cd        ..      BCC      0x8000b32 ; ReadRegsCb + 22
        0x08000b96:    2000        .       MOVS     r0,#0
        0x08000b98:    e7c7        ..      B        0x8000b2a ; ReadRegsCb + 14
    $d
        0x08000b9a:    0000        ..      DCW    0
        0x08000b9c:    20000028    (..     DCD    536870952
    $t
    i.ReadSysParam
    ReadSysParam
        0x08000ba0:    b570        p.      PUSH     {r4-r6,lr}
        0x08000ba2:    4604        .F      MOV      r4,r0
        0x08000ba4:    2504        .%      MOVS     r5,#4
        0x08000ba6:    462a        *F      MOV      r2,r5
        0x08000ba8:    4621        !F      MOV      r1,r4
        0x08000baa:    2000        .       MOVS     r0,#0
        0x08000bac:    f7ffff7c    ..|.    BL       ReadDataWithCheck ; 0x8000aa8
        0x08000bb0:    b108        ..      CBZ      r0,0x8000bb6 ; ReadSysParam + 22
        0x08000bb2:    2001        .       MOVS     r0,#1
        0x08000bb4:    bd70        p.      POP      {r4-r6,pc}
        0x08000bb6:    462a        *F      MOV      r2,r5
        0x08000bb8:    4621        !F      MOV      r1,r4
        0x08000bba:    f44f5080    O..P    MOV      r0,#0x1000
        0x08000bbe:    f7ffff73    ..s.    BL       ReadDataWithCheck ; 0x8000aa8
        0x08000bc2:    b108        ..      CBZ      r0,0x8000bc8 ; ReadSysParam + 40
        0x08000bc4:    2001        .       MOVS     r0,#1
        0x08000bc6:    e7f5        ..      B        0x8000bb4 ; ReadSysParam + 20
        0x08000bc8:    2000        .       MOVS     r0,#0
        0x08000bca:    e7f3        ..      B        0x8000bb4 ; ReadSysParam + 20
    i.RtcDrvInit
    RtcDrvInit
        0x08000bcc:    b510        ..      PUSH     {r4,lr}
        0x08000bce:    2001        .       MOVS     r0,#1
        0x08000bd0:    f000ffbe    ....    BL       bkp_read_data ; 0x8001b50
        0x08000bd4:    f645215a    E.Z!    MOV      r1,#0x5a5a
        0x08000bd8:    4288        .B      CMP      r0,r1
        0x08000bda:    d02e        ..      BEQ      0x8000c3a ; RtcDrvInit + 110
        0x08000bdc:    f240701c    @..p    MOV      r0,#0x71c
        0x08000be0:    f001fd90    ....    BL       rcu_periph_clock_enable ; 0x8002704
        0x08000be4:    f240701b    @..p    MOV      r0,#0x71b
        0x08000be8:    f001fd8c    ....    BL       rcu_periph_clock_enable ; 0x8002704
        0x08000bec:    f001fbb6    ....    BL       pmu_backup_write_enable ; 0x800235c
        0x08000bf0:    f000ffa8    ....    BL       bkp_deinit ; 0x8001b44
        0x08000bf4:    f44f6000    O..`    MOV      r0,#0x800
        0x08000bf8:    f001fcec    ....    BL       rcu_osci_on ; 0x80025d4
        0x08000bfc:    f44f6000    O..`    MOV      r0,#0x800
        0x08000c00:    f001fcf8    ....    BL       rcu_osci_stab_wait ; 0x80025f4
        0x08000c04:    f44f7080    O..p    MOV      r0,#0x100
        0x08000c08:    f001fdac    ....    BL       rcu_rtc_clock_config ; 0x8002764
        0x08000c0c:    f640000f    @...    MOV      r0,#0x80f
        0x08000c10:    f001fd78    ..x.    BL       rcu_periph_clock_enable ; 0x8002704
        0x08000c14:    f001fdf0    ....    BL       rtc_register_sync_wait ; 0x80027f8
        0x08000c18:    f001fdd4    ....    BL       rtc_lwoff_wait ; 0x80027c4
        0x08000c1c:    f64770ff    G..p    MOV      r0,#0x7fff
        0x08000c20:    f001fdda    ....    BL       rtc_prescaler_set ; 0x80027d8
        0x08000c24:    f001fdce    ....    BL       rtc_lwoff_wait ; 0x80027c4
        0x08000c28:    480c        .H      LDR      r0,[pc,#48] ; [0x8000c5c] = 0x63fe24f6
        0x08000c2a:    f001fdbb    ....    BL       rtc_counter_set ; 0x80027a4
        0x08000c2e:    f645215a    E.Z!    MOV      r1,#0x5a5a
        0x08000c32:    2001        .       MOVS     r0,#1
        0x08000c34:    f000ffa8    ....    BL       bkp_write_data ; 0x8001b88
        0x08000c38:    bd10        ..      POP      {r4,pc}
        0x08000c3a:    f240701c    @..p    MOV      r0,#0x71c
        0x08000c3e:    f001fd61    ..a.    BL       rcu_periph_clock_enable ; 0x8002704
        0x08000c42:    f240701b    @..p    MOV      r0,#0x71b
        0x08000c46:    f001fd5d    ..].    BL       rcu_periph_clock_enable ; 0x8002704
        0x08000c4a:    f001fb87    ....    BL       pmu_backup_write_enable ; 0x800235c
        0x08000c4e:    f001fdd3    ....    BL       rtc_register_sync_wait ; 0x80027f8
        0x08000c52:    f001fdb7    ....    BL       rtc_lwoff_wait ; 0x80027c4
        0x08000c56:    bf00        ..      NOP      
        0x08000c58:    e7ee        ..      B        0x8000c38 ; RtcDrvInit + 108
    $d
        0x08000c5a:    0000        ..      DCW    0
        0x08000c5c:    63fe24f6    .$.c    DCD    1677599990
    $t
    i.SPIInit
    SPIInit
        0x08000c60:    b510        ..      PUSH     {r4,lr}
        0x08000c62:    f7fffcf5    ....    BL       GpioInit ; 0x8000650
        0x08000c66:    2104        .!      MOVS     r1,#4
        0x08000c68:    4801        .H      LDR      r0,[pc,#4] ; [0x8000c70] = 0x40011800
        0x08000c6a:    f001fa8d    ....    BL       gpio_bit_set ; 0x8002188
        0x08000c6e:    bd10        ..      POP      {r4,pc}
    $d
        0x08000c70:    40011800    ...@    DCD    1073813504
    $t
    i.SPIReadWriteByte
    SPIReadWriteByte
        0x08000c74:    b570        p.      PUSH     {r4-r6,lr}
        0x08000c76:    4605        .F      MOV      r5,r0
        0x08000c78:    bf00        ..      NOP      
        0x08000c7a:    2102        .!      MOVS     r1,#2
        0x08000c7c:    480c        .H      LDR      r0,[pc,#48] ; [0x8000cb0] = 0x40003800
        0x08000c7e:    f001fdd6    ....    BL       spi_i2s_flag_get ; 0x800282e
        0x08000c82:    2800        .(      CMP      r0,#0
        0x08000c84:    d0f9        ..      BEQ      0x8000c7a ; SPIReadWriteByte + 6
        0x08000c86:    4629        )F      MOV      r1,r5
        0x08000c88:    4809        .H      LDR      r0,[pc,#36] ; [0x8000cb0] = 0x40003800
        0x08000c8a:    f001fdce    ....    BL       spi_i2s_data_transmit ; 0x800282a
        0x08000c8e:    4c09        .L      LDR      r4,[pc,#36] ; [0x8000cb4] = 0x186a0
        0x08000c90:    e002        ..      B        0x8000c98 ; SPIReadWriteByte + 36
        0x08000c92:    1e64        d.      SUBS     r4,r4,#1
        0x08000c94:    b904        ..      CBNZ     r4,0x8000c98 ; SPIReadWriteByte + 36
        0x08000c96:    e005        ..      B        0x8000ca4 ; SPIReadWriteByte + 48
        0x08000c98:    2101        .!      MOVS     r1,#1
        0x08000c9a:    4805        .H      LDR      r0,[pc,#20] ; [0x8000cb0] = 0x40003800
        0x08000c9c:    f001fdc7    ....    BL       spi_i2s_flag_get ; 0x800282e
        0x08000ca0:    2800        .(      CMP      r0,#0
        0x08000ca2:    d0f6        ..      BEQ      0x8000c92 ; SPIReadWriteByte + 30
        0x08000ca4:    bf00        ..      NOP      
        0x08000ca6:    4802        .H      LDR      r0,[pc,#8] ; [0x8000cb0] = 0x40003800
        0x08000ca8:    f001fdbb    ....    BL       spi_i2s_data_receive ; 0x8002822
        0x08000cac:    b2c0        ..      UXTB     r0,r0
        0x08000cae:    bd70        p.      POP      {r4-r6,pc}
    $d
        0x08000cb0:    40003800    .8.@    DCD    1073756160
        0x08000cb4:    000186a0    ....    DCD    100000
    $t
    i.SPIStart
    SPIStart
        0x08000cb8:    b510        ..      PUSH     {r4,lr}
        0x08000cba:    2104        .!      MOVS     r1,#4
        0x08000cbc:    4801        .H      LDR      r0,[pc,#4] ; [0x8000cc4] = 0x40011800
        0x08000cbe:    f001fa61    ..a.    BL       gpio_bit_reset ; 0x8002184
        0x08000cc2:    bd10        ..      POP      {r4,pc}
    $d
        0x08000cc4:    40011800    ...@    DCD    1073813504
    $t
    i.SPIStop
    SPIStop
        0x08000cc8:    b510        ..      PUSH     {r4,lr}
        0x08000cca:    2104        .!      MOVS     r1,#4
        0x08000ccc:    4801        .H      LDR      r0,[pc,#4] ; [0x8000cd4] = 0x40011800
        0x08000cce:    f001fa5b    ..[.    BL       gpio_bit_set ; 0x8002188
        0x08000cd2:    bd10        ..      POP      {r4,pc}
    $d
        0x08000cd4:    40011800    ...@    DCD    1073813504
    $t
    i.SVC_Handler
    SVC_Handler
        0x08000cd8:    4770        pG      BX       lr
    i.SensorDrvInit
    SensorDrvInit
        0x08000cda:    b510        ..      PUSH     {r4,lr}
        0x08000cdc:    f000f96c    ..l.    BL       TempDrvInit ; 0x8000fb8
        0x08000ce0:    f7fffd66    ..f.    BL       HumiDrvInit ; 0x80007b0
        0x08000ce4:    bd10        ..      POP      {r4,pc}
        0x08000ce6:    0000        ..      MOVS     r0,r0
    i.SetModbusParam
    SetModbusParam
        0x08000ce8:    b538        8.      PUSH     {r3-r5,lr}
        0x08000cea:    4604        .F      MOV      r4,r0
        0x08000cec:    480f        .H      LDR      r0,[pc,#60] ; [0x8000d2c] = 0x20000024
        0x08000cee:    7880        .x      LDRB     r0,[r0,#2]
        0x08000cf0:    42a0        .B      CMP      r0,r4
        0x08000cf2:    d101        ..      BNE      0x8000cf8 ; SetModbusParam + 16
        0x08000cf4:    2001        .       MOVS     r0,#1
        0x08000cf6:    bd38        8.      POP      {r3-r5,pc}
        0x08000cf8:    480c        .H      LDR      r0,[pc,#48] ; [0x8000d2c] = 0x20000024
        0x08000cfa:    6800        .h      LDR      r0,[r0,#0]
        0x08000cfc:    9000        ..      STR      r0,[sp,#0]
        0x08000cfe:    f88d4002    ...@    STRB     r4,[sp,#2]
        0x08000d02:    4620         F      MOV      r0,r4
        0x08000d04:    f001fa10    ....    BL       eMBSetSlaveAddr ; 0x8002128
        0x08000d08:    b108        ..      CBZ      r0,0x8000d0e ; SetModbusParam + 38
        0x08000d0a:    2000        .       MOVS     r0,#0
        0x08000d0c:    e7f3        ..      B        0x8000cf6 ; SetModbusParam + 14
        0x08000d0e:    4668        hF      MOV      r0,sp
        0x08000d10:    f000fb0c    ....    BL       WriteSysParam ; 0x800132c
        0x08000d14:    b928        (.      CBNZ     r0,0x8000d22 ; SetModbusParam + 58
        0x08000d16:    4905        .I      LDR      r1,[pc,#20] ; [0x8000d2c] = 0x20000024
        0x08000d18:    7888        .x      LDRB     r0,[r1,#2]
        0x08000d1a:    f001fa05    ....    BL       eMBSetSlaveAddr ; 0x8002128
        0x08000d1e:    2000        .       MOVS     r0,#0
        0x08000d20:    e7e9        ..      B        0x8000cf6 ; SetModbusParam + 14
        0x08000d22:    4802        .H      LDR      r0,[pc,#8] ; [0x8000d2c] = 0x20000024
        0x08000d24:    9900        ..      LDR      r1,[sp,#0]
        0x08000d26:    6001        .`      STR      r1,[r0,#0]
        0x08000d28:    2001        .       MOVS     r0,#1
        0x08000d2a:    e7e4        ..      B        0x8000cf6 ; SetModbusParam + 14
    $d
        0x08000d2c:    20000024    $..     DCD    536870948
    $t
    i.SwitchInit
    SwitchInit
        0x08000d30:    b510        ..      PUSH     {r4,lr}
        0x08000d32:    f2406004    @..`    MOV      r0,#0x604
        0x08000d36:    f001fce5    ....    BL       rcu_periph_clock_enable ; 0x8002704
        0x08000d3a:    2320         #      MOVS     r3,#0x20
        0x08000d3c:    2203        ."      MOVS     r2,#3
        0x08000d3e:    2110        .!      MOVS     r1,#0x10
        0x08000d40:    4801        .H      LDR      r0,[pc,#4] ; [0x8000d48] = 0x40011000
        0x08000d42:    f001fa28    ..(.    BL       gpio_init ; 0x8002196
        0x08000d46:    bd10        ..      POP      {r4,pc}
    $d
        0x08000d48:    40011000    ...@    DCD    1073811456
    $t
    i.SysTick_Handler
    SysTick_Handler
        0x08000d4c:    b510        ..      PUSH     {r4,lr}
        0x08000d4e:    4809        .H      LDR      r0,[pc,#36] ; [0x8000d74] = 0x20000190
        0x08000d50:    6802        .h      LDR      r2,[r0,#0]
        0x08000d52:    6840        @h      LDR      r0,[r0,#4]
        0x08000d54:    1c52        R.      ADDS     r2,r2,#1
        0x08000d56:    f1400000    @...    ADC      r0,r0,#0
        0x08000d5a:    4906        .I      LDR      r1,[pc,#24] ; [0x8000d74] = 0x20000190
        0x08000d5c:    600a        .`      STR      r2,[r1,#0]
        0x08000d5e:    6048        H`      STR      r0,[r1,#4]
        0x08000d60:    4805        .H      LDR      r0,[pc,#20] ; [0x8000d78] = 0x20000198
        0x08000d62:    6800        .h      LDR      r0,[r0,#0]
        0x08000d64:    b900        ..      CBNZ     r0,0x8000d68 ; SysTick_Handler + 28
        0x08000d66:    bd10        ..      POP      {r4,pc}
        0x08000d68:    4803        .H      LDR      r0,[pc,#12] ; [0x8000d78] = 0x20000198
        0x08000d6a:    6800        .h      LDR      r0,[r0,#0]
        0x08000d6c:    4780        .G      BLX      r0
        0x08000d6e:    bf00        ..      NOP      
        0x08000d70:    e7f9        ..      B        0x8000d66 ; SysTick_Handler + 26
    $d
        0x08000d72:    0000        ..      DCW    0
        0x08000d74:    20000190    ...     DCD    536871312
        0x08000d78:    20000198    ...     DCD    536871320
    $t
    i.SystemInit
    SystemInit
        0x08000d7c:    b508        ..      PUSH     {r3,lr}
        0x08000d7e:    4826        &H      LDR      r0,[pc,#152] ; [0x8000e18] = 0xe000ed88
        0x08000d80:    6800        .h      LDR      r0,[r0,#0]
        0x08000d82:    f4400070    @.p.    ORR      r0,r0,#0xf00000
        0x08000d86:    4924        $I      LDR      r1,[pc,#144] ; [0x8000e18] = 0xe000ed88
        0x08000d88:    6008        .`      STR      r0,[r1,#0]
        0x08000d8a:    4824        $H      LDR      r0,[pc,#144] ; [0x8000e1c] = 0x40021000
        0x08000d8c:    6800        .h      LDR      r0,[r0,#0]
        0x08000d8e:    f0400001    @...    ORR      r0,r0,#1
        0x08000d92:    4922        "I      LDR      r1,[pc,#136] ; [0x8000e1c] = 0x40021000
        0x08000d94:    6008        .`      STR      r0,[r1,#0]
        0x08000d96:    bf00        ..      NOP      
        0x08000d98:    4820         H      LDR      r0,[pc,#128] ; [0x8000e1c] = 0x40021000
        0x08000d9a:    6800        .h      LDR      r0,[r0,#0]
        0x08000d9c:    f0000002    ....    AND      r0,r0,#2
        0x08000da0:    2800        .(      CMP      r0,#0
        0x08000da2:    d0f9        ..      BEQ      0x8000d98 ; SystemInit + 28
        0x08000da4:    bf00        ..      NOP      
        0x08000da6:    481d        .H      LDR      r0,[pc,#116] ; [0x8000e1c] = 0x40021000
        0x08000da8:    6840        @h      LDR      r0,[r0,#4]
        0x08000daa:    f0400080    @...    ORR      r0,r0,#0x80
        0x08000dae:    491b        .I      LDR      r1,[pc,#108] ; [0x8000e1c] = 0x40021000
        0x08000db0:    6048        H`      STR      r0,[r1,#4]
        0x08000db2:    2000        .       MOVS     r0,#0
        0x08000db4:    9000        ..      STR      r0,[sp,#0]
        0x08000db6:    e002        ..      B        0x8000dbe ; SystemInit + 66
        0x08000db8:    9800        ..      LDR      r0,[sp,#0]
        0x08000dba:    1c40        @.      ADDS     r0,r0,#1
        0x08000dbc:    9000        ..      STR      r0,[sp,#0]
        0x08000dbe:    9800        ..      LDR      r0,[sp,#0]
        0x08000dc0:    2850        P(      CMP      r0,#0x50
        0x08000dc2:    d3f9        ..      BCC      0x8000db8 ; SystemInit + 60
        0x08000dc4:    4815        .H      LDR      r0,[pc,#84] ; [0x8000e1c] = 0x40021000
        0x08000dc6:    6840        @h      LDR      r0,[r0,#4]
        0x08000dc8:    f0400090    @...    ORR      r0,r0,#0x90
        0x08000dcc:    4913        .I      LDR      r1,[pc,#76] ; [0x8000e1c] = 0x40021000
        0x08000dce:    6048        H`      STR      r0,[r1,#4]
        0x08000dd0:    2000        .       MOVS     r0,#0
        0x08000dd2:    9000        ..      STR      r0,[sp,#0]
        0x08000dd4:    e002        ..      B        0x8000ddc ; SystemInit + 96
        0x08000dd6:    9800        ..      LDR      r0,[sp,#0]
        0x08000dd8:    1c40        @.      ADDS     r0,r0,#1
        0x08000dda:    9000        ..      STR      r0,[sp,#0]
        0x08000ddc:    9800        ..      LDR      r0,[sp,#0]
        0x08000dde:    2850        P(      CMP      r0,#0x50
        0x08000de0:    d3f9        ..      BCC      0x8000dd6 ; SystemInit + 90
        0x08000de2:    bf00        ..      NOP      
        0x08000de4:    480d        .H      LDR      r0,[pc,#52] ; [0x8000e1c] = 0x40021000
        0x08000de6:    6840        @h      LDR      r0,[r0,#4]
        0x08000de8:    f0200003     ...    BIC      r0,r0,#3
        0x08000dec:    490b        .I      LDR      r1,[pc,#44] ; [0x8000e1c] = 0x40021000
        0x08000dee:    6048        H`      STR      r0,[r1,#4]
        0x08000df0:    4608        .F      MOV      r0,r1
        0x08000df2:    6800        .h      LDR      r0,[r0,#0]
        0x08000df4:    490a        .I      LDR      r1,[pc,#40] ; [0x8000e20] = 0xfef6ffff
        0x08000df6:    4008        .@      ANDS     r0,r0,r1
        0x08000df8:    4908        .I      LDR      r1,[pc,#32] ; [0x8000e1c] = 0x40021000
        0x08000dfa:    6008        .`      STR      r0,[r1,#0]
        0x08000dfc:    f44f001f    O...    MOV      r0,#0x9f0000
        0x08000e00:    6088        .`      STR      r0,[r1,#8]
        0x08000e02:    4608        .F      MOV      r0,r1
        0x08000e04:    6800        .h      LDR      r0,[r0,#0]
        0x08000e06:    f4202080     ..     BIC      r0,r0,#0x40000
        0x08000e0a:    6008        .`      STR      r0,[r1,#0]
        0x08000e0c:    2000        .       MOVS     r0,#0
        0x08000e0e:    6048        H`      STR      r0,[r1,#4]
        0x08000e10:    62c8        .b      STR      r0,[r1,#0x2c]
        0x08000e12:    f001fdc1    ....    BL       system_clock_config ; 0x8002998
        0x08000e16:    bd08        ..      POP      {r3,pc}
    $d
        0x08000e18:    e000ed88    ....    DCD    3758157192
        0x08000e1c:    40021000    ...@    DCD    1073876992
        0x08000e20:    fef6ffff    ....    DCD    4277600255
    $t
    i.SystickInit
    SystickInit
        0x08000e24:    b570        p.      PUSH     {r4-r6,lr}
        0x08000e26:    2001        .       MOVS     r0,#1
        0x08000e28:    f001fb16    ....    BL       rcu_clock_freq_get ; 0x8002458
        0x08000e2c:    f44f717a    O.zq    MOV      r1,#0x3e8
        0x08000e30:    fbb0f4f1    ....    UDIV     r4,r0,r1
        0x08000e34:    1e60        `.      SUBS     r0,r4,#1
        0x08000e36:    f1b07f80    ....    CMP      r0,#0x1000000
        0x08000e3a:    d301        ..      BCC      0x8000e40 ; SystickInit + 28
        0x08000e3c:    2001        .       MOVS     r0,#1
        0x08000e3e:    e01b        ..      B        0x8000e78 ; SystickInit + 84
        0x08000e40:    1e60        `.      SUBS     r0,r4,#1
        0x08000e42:    f04f21e0    O..!    MOV      r1,#0xe000e000
        0x08000e46:    6148        Ha      STR      r0,[r1,#0x14]
        0x08000e48:    1748        H.      ASRS     r0,r1,#29
        0x08000e4a:    210f        .!      MOVS     r1,#0xf
        0x08000e4c:    2800        .(      CMP      r0,#0
        0x08000e4e:    da07        ..      BGE      0x8000e60 ; SystickInit + 60
        0x08000e50:    070a        ..      LSLS     r2,r1,#28
        0x08000e52:    0e15        ..      LSRS     r5,r2,#24
        0x08000e54:    4a0a        .J      LDR      r2,[pc,#40] ; [0x8000e80] = 0xe000ed18
        0x08000e56:    f000030f    ....    AND      r3,r0,#0xf
        0x08000e5a:    1f1b        ..      SUBS     r3,r3,#4
        0x08000e5c:    54d5        .T      STRB     r5,[r2,r3]
        0x08000e5e:    e003        ..      B        0x8000e68 ; SystickInit + 68
        0x08000e60:    070a        ..      LSLS     r2,r1,#28
        0x08000e62:    0e13        ..      LSRS     r3,r2,#24
        0x08000e64:    4a07        .J      LDR      r2,[pc,#28] ; [0x8000e84] = 0xe000e400
        0x08000e66:    5413        .T      STRB     r3,[r2,r0]
        0x08000e68:    bf00        ..      NOP      
        0x08000e6a:    2000        .       MOVS     r0,#0
        0x08000e6c:    f04f21e0    O..!    MOV      r1,#0xe000e000
        0x08000e70:    6188        .a      STR      r0,[r1,#0x18]
        0x08000e72:    2007        .       MOVS     r0,#7
        0x08000e74:    6108        .a      STR      r0,[r1,#0x10]
        0x08000e76:    2000        .       MOVS     r0,#0
        0x08000e78:    b108        ..      CBZ      r0,0x8000e7e ; SystickInit + 90
        0x08000e7a:    bf00        ..      NOP      
        0x08000e7c:    e7fe        ..      B        0x8000e7c ; SystickInit + 88
        0x08000e7e:    bd70        p.      POP      {r4-r6,pc}
    $d
        0x08000e80:    e000ed18    ....    DCD    3758157080
        0x08000e84:    e000e400    ....    DCD    3758154752
    $t
    i.TIMER3_IRQHandler
    TIMER3_IRQHandler
        0x08000e88:    b510        ..      PUSH     {r4,lr}
        0x08000e8a:    2101        .!      MOVS     r1,#1
        0x08000e8c:    4807        .H      LDR      r0,[pc,#28] ; [0x8000eac] = 0x40000800
        0x08000e8e:    f001fe58    ..X.    BL       timer_interrupt_flag_get ; 0x8002b42
        0x08000e92:    2801        .(      CMP      r0,#1
        0x08000e94:    d109        ..      BNE      0x8000eaa ; TIMER3_IRQHandler + 34
        0x08000e96:    2101        .!      MOVS     r1,#1
        0x08000e98:    4804        .H      LDR      r0,[pc,#16] ; [0x8000eac] = 0x40000800
        0x08000e9a:    f001fe4f    ..O.    BL       timer_interrupt_flag_clear ; 0x8002b3c
        0x08000e9e:    2100        .!      MOVS     r1,#0
        0x08000ea0:    4802        .H      LDR      r0,[pc,#8] ; [0x8000eac] = 0x40000800
        0x08000ea2:    f001fd7d    ..}.    BL       timer_counter_value_config ; 0x80029a0
        0x08000ea6:    f001fa75    ..u.    BL       prvvTIMERExpiredISR ; 0x8002394
        0x08000eaa:    bd10        ..      POP      {r4,pc}
    $d
        0x08000eac:    40000800    ...@    DCD    1073743872
    $t
    i.TIMER4_IRQHandler
    TIMER4_IRQHandler
        0x08000eb0:    b510        ..      PUSH     {r4,lr}
        0x08000eb2:    2101        .!      MOVS     r1,#1
        0x08000eb4:    4812        .H      LDR      r0,[pc,#72] ; [0x8000f00] = 0x40000c00
        0x08000eb6:    f001fe44    ..D.    BL       timer_interrupt_flag_get ; 0x8002b42
        0x08000eba:    2801        .(      CMP      r0,#1
        0x08000ebc:    d11f        ..      BNE      0x8000efe ; TIMER4_IRQHandler + 78
        0x08000ebe:    2101        .!      MOVS     r1,#1
        0x08000ec0:    480f        .H      LDR      r0,[pc,#60] ; [0x8000f00] = 0x40000c00
        0x08000ec2:    f001fe3b    ..;.    BL       timer_interrupt_flag_clear ; 0x8002b3c
        0x08000ec6:    480f        .H      LDR      r0,[pc,#60] ; [0x8000f04] = 0x20000188
        0x08000ec8:    8800        ..      LDRH     r0,[r0,#0]
        0x08000eca:    1c40        @.      ADDS     r0,r0,#1
        0x08000ecc:    490d        .I      LDR      r1,[pc,#52] ; [0x8000f04] = 0x20000188
        0x08000ece:    8008        ..      STRH     r0,[r1,#0]
        0x08000ed0:    8808        ..      LDRH     r0,[r1,#0]
        0x08000ed2:    eb0071d0    ...q    ADD      r1,r0,r0,LSR #31
        0x08000ed6:    1049        I.      ASRS     r1,r1,#1
        0x08000ed8:    eba00141    ..A.    SUB      r1,r0,r1,LSL #1
        0x08000edc:    b909        ..      CBNZ     r1,0x8000ee2 ; TIMER4_IRQHandler + 50
        0x08000ede:    f7fff9d1    ....    BL       AcPowerProc ; 0x8000284
        0x08000ee2:    4808        .H      LDR      r0,[pc,#32] ; [0x8000f04] = 0x20000188
        0x08000ee4:    8800        ..      LDRH     r0,[r0,#0]
        0x08000ee6:    f44f71c8    O..q    MOV      r1,#0x190
        0x08000eea:    fb90f2f1    ....    SDIV     r2,r0,r1
        0x08000eee:    fb010012    ....    MLS      r0,r1,r2,r0
        0x08000ef2:    2801        .(      CMP      r0,#1
        0x08000ef4:    d103        ..      BNE      0x8000efe ; TIMER4_IRQHandler + 78
        0x08000ef6:    f7fffb23    ..#.    BL       GetAdcVal ; 0x8000540
        0x08000efa:    4903        .I      LDR      r1,[pc,#12] ; [0x8000f08] = 0x20000184
        0x08000efc:    8008        ..      STRH     r0,[r1,#0]
        0x08000efe:    bd10        ..      POP      {r4,pc}
    $d
        0x08000f00:    40000c00    ...@    DCD    1073744896
        0x08000f04:    20000188    ...     DCD    536871304
        0x08000f08:    20000184    ...     DCD    536871300
    $t
    i.TaskHandler
    TaskHandler
        0x08000f0c:    b510        ..      PUSH     {r4,lr}
        0x08000f0e:    2400        .$      MOVS     r4,#0
        0x08000f10:    e013        ..      B        0x8000f3a ; TaskHandler + 46
        0x08000f12:    eb040044    ..D.    ADD      r0,r4,r4,LSL #1
        0x08000f16:    490a        .I      LDR      r1,[pc,#40] ; [0x8000f40] = 0x20000000
        0x08000f18:    f8110020    .. .    LDRB     r0,[r1,r0,LSL #2]
        0x08000f1c:    b158        X.      CBZ      r0,0x8000f36 ; TaskHandler + 42
        0x08000f1e:    2000        .       MOVS     r0,#0
        0x08000f20:    eb040144    ..D.    ADD      r1,r4,r4,LSL #1
        0x08000f24:    4a06        .J      LDR      r2,[pc,#24] ; [0x8000f40] = 0x20000000
        0x08000f26:    f8020021    ..!.    STRB     r0,[r2,r1,LSL #2]
        0x08000f2a:    eb040144    ..D.    ADD      r1,r4,r4,LSL #1
        0x08000f2e:    eb020181    ....    ADD      r1,r2,r1,LSL #2
        0x08000f32:    6888        .h      LDR      r0,[r1,#8]
        0x08000f34:    4780        .G      BLX      r0
        0x08000f36:    1c60        `.      ADDS     r0,r4,#1
        0x08000f38:    b2c4        ..      UXTB     r4,r0
        0x08000f3a:    2c03        .,      CMP      r4,#3
        0x08000f3c:    d3e9        ..      BCC      0x8000f12 ; TaskHandler + 6
        0x08000f3e:    bd10        ..      POP      {r4,pc}
    $d
        0x08000f40:    20000000    ...     DCD    536870912
    $t
    i.TaskScheduleCb
    TaskScheduleCb
        0x08000f44:    2000        .       MOVS     r0,#0
        0x08000f46:    e02b        +.      B        0x8000fa0 ; TaskScheduleCb + 92
        0x08000f48:    eb000140    ..@.    ADD      r1,r0,r0,LSL #1
        0x08000f4c:    4a16        .J      LDR      r2,[pc,#88] ; [0x8000fa8] = 0x20000000
        0x08000f4e:    eb020181    ....    ADD      r1,r2,r1,LSL #2
        0x08000f52:    8849        I.      LDRH     r1,[r1,#2]
        0x08000f54:    b311        ..      CBZ      r1,0x8000f9c ; TaskScheduleCb + 88
        0x08000f56:    eb000140    ..@.    ADD      r1,r0,r0,LSL #1
        0x08000f5a:    eb020181    ....    ADD      r1,r2,r1,LSL #2
        0x08000f5e:    8849        I.      LDRH     r1,[r1,#2]
        0x08000f60:    1e49        I.      SUBS     r1,r1,#1
        0x08000f62:    eb000240    ..@.    ADD      r2,r0,r0,LSL #1
        0x08000f66:    4b10        .K      LDR      r3,[pc,#64] ; [0x8000fa8] = 0x20000000
        0x08000f68:    eb030282    ....    ADD      r2,r3,r2,LSL #2
        0x08000f6c:    8051        Q.      STRH     r1,[r2,#2]
        0x08000f6e:    eb000140    ..@.    ADD      r1,r0,r0,LSL #1
        0x08000f72:    461a        .F      MOV      r2,r3
        0x08000f74:    eb020181    ....    ADD      r1,r2,r1,LSL #2
        0x08000f78:    8849        I.      LDRH     r1,[r1,#2]
        0x08000f7a:    b979        y.      CBNZ     r1,0x8000f9c ; TaskScheduleCb + 88
        0x08000f7c:    2101        .!      MOVS     r1,#1
        0x08000f7e:    eb000240    ..@.    ADD      r2,r0,r0,LSL #1
        0x08000f82:    f8031022    ..".    STRB     r1,[r3,r2,LSL #2]
        0x08000f86:    eb000140    ..@.    ADD      r1,r0,r0,LSL #1
        0x08000f8a:    461a        .F      MOV      r2,r3
        0x08000f8c:    eb020181    ....    ADD      r1,r2,r1,LSL #2
        0x08000f90:    8889        ..      LDRH     r1,[r1,#4]
        0x08000f92:    eb000240    ..@.    ADD      r2,r0,r0,LSL #1
        0x08000f96:    eb030282    ....    ADD      r2,r3,r2,LSL #2
        0x08000f9a:    8051        Q.      STRH     r1,[r2,#2]
        0x08000f9c:    1c41        A.      ADDS     r1,r0,#1
        0x08000f9e:    b2c8        ..      UXTB     r0,r1
        0x08000fa0:    2803        .(      CMP      r0,#3
        0x08000fa2:    d3d1        ..      BCC      0x8000f48 ; TaskScheduleCb + 4
        0x08000fa4:    4770        pG      BX       lr
    $d
        0x08000fa6:    0000        ..      DCW    0
        0x08000fa8:    20000000    ...     DCD    536870912
    $t
    i.TaskScheduleCbReg
    TaskScheduleCbReg
        0x08000fac:    4901        .I      LDR      r1,[pc,#4] ; [0x8000fb4] = 0x20000198
        0x08000fae:    6008        .`      STR      r0,[r1,#0]
        0x08000fb0:    4770        pG      BX       lr
    $d
        0x08000fb2:    0000        ..      DCW    0
        0x08000fb4:    20000198    ...     DCD    536871320
    $t
    i.TempDrvInit
    TempDrvInit
        0x08000fb8:    b510        ..      PUSH     {r4,lr}
        0x08000fba:    f7fffb09    ....    BL       GpioInit ; 0x80005d0
        0x08000fbe:    f7fff97d    ..}.    BL       AdcInit ; 0x80002bc
        0x08000fc2:    bd10        ..      POP      {r4,pc}
    i.TimerInit
    TimerInit
        0x08000fc4:    b51f        ..      PUSH     {r0-r4,lr}
        0x08000fc6:    4604        .F      MOV      r4,r0
        0x08000fc8:    f2407003    @..p    MOV      r0,#0x703
        0x08000fcc:    f001fb9a    ....    BL       rcu_periph_clock_enable ; 0x8002704
        0x08000fd0:    480d        .H      LDR      r0,[pc,#52] ; [0x8001008] = 0x40000c00
        0x08000fd2:    f001fce7    ....    BL       timer_deinit ; 0x80029a4
        0x08000fd6:    4668        hF      MOV      r0,sp
        0x08000fd8:    f001fdbf    ....    BL       timer_struct_para_init ; 0x8002b5a
        0x08000fdc:    2077        w       MOVS     r0,#0x77
        0x08000fde:    f8ad0000    ....    STRH     r0,[sp,#0]
        0x08000fe2:    1e60        `.      SUBS     r0,r4,#1
        0x08000fe4:    9002        ..      STR      r0,[sp,#8]
        0x08000fe6:    4669        iF      MOV      r1,sp
        0x08000fe8:    4807        .H      LDR      r0,[pc,#28] ; [0x8001008] = 0x40000c00
        0x08000fea:    f001fd53    ..S.    BL       timer_init ; 0x8002a94
        0x08000fee:    2101        .!      MOVS     r1,#1
        0x08000ff0:    4805        .H      LDR      r0,[pc,#20] ; [0x8001008] = 0x40000c00
        0x08000ff2:    f001fd9f    ....    BL       timer_interrupt_enable ; 0x8002b34
        0x08000ff6:    2200        ."      MOVS     r2,#0
        0x08000ff8:    4611        .F      MOV      r1,r2
        0x08000ffa:    2032        2       MOVS     r0,#0x32
        0x08000ffc:    f001f942    ..B.    BL       nvic_irq_enable ; 0x8002284
        0x08001000:    4801        .H      LDR      r0,[pc,#4] ; [0x8001008] = 0x40000c00
        0x08001002:    f001fd42    ..B.    BL       timer_enable ; 0x8002a8a
        0x08001006:    bd1f        ..      POP      {r0-r4,pc}
    $d
        0x08001008:    40000c00    ...@    DCD    1073744896
    $t
    i.TurnOffLed
    TurnOffLed
        0x0800100c:    b510        ..      PUSH     {r4,lr}
        0x0800100e:    4604        .F      MOV      r4,r0
        0x08001010:    2c03        .,      CMP      r4,#3
        0x08001012:    d300        ..      BCC      0x8001016 ; TurnOffLed + 10
        0x08001014:    bd10        ..      POP      {r4,pc}
        0x08001016:    eb040244    ..D.    ADD      r2,r4,r4,LSL #1
        0x0800101a:    4b06        .K      LDR      r3,[pc,#24] ; [0x8001034] = 0x20000158
        0x0800101c:    eb030282    ....    ADD      r2,r3,r2,LSL #2
        0x08001020:    6891        .h      LDR      r1,[r2,#8]
        0x08001022:    eb040244    ..D.    ADD      r2,r4,r4,LSL #1
        0x08001026:    eb030282    ....    ADD      r2,r3,r2,LSL #2
        0x0800102a:    6850        Ph      LDR      r0,[r2,#4]
        0x0800102c:    f001f8aa    ....    BL       gpio_bit_reset ; 0x8002184
        0x08001030:    bf00        ..      NOP      
        0x08001032:    e7ef        ..      B        0x8001014 ; TurnOffLed + 8
    $d
        0x08001034:    20000158    X..     DCD    536871256
    $t
    i.TurnOnLed
    TurnOnLed
        0x08001038:    b510        ..      PUSH     {r4,lr}
        0x0800103a:    4604        .F      MOV      r4,r0
        0x0800103c:    2c03        .,      CMP      r4,#3
        0x0800103e:    d300        ..      BCC      0x8001042 ; TurnOnLed + 10
        0x08001040:    bd10        ..      POP      {r4,pc}
        0x08001042:    eb040244    ..D.    ADD      r2,r4,r4,LSL #1
        0x08001046:    4b06        .K      LDR      r3,[pc,#24] ; [0x8001060] = 0x20000158
        0x08001048:    eb030282    ....    ADD      r2,r3,r2,LSL #2
        0x0800104c:    6891        .h      LDR      r1,[r2,#8]
        0x0800104e:    eb040244    ..D.    ADD      r2,r4,r4,LSL #1
        0x08001052:    eb030282    ....    ADD      r2,r3,r2,LSL #2
        0x08001056:    6850        Ph      LDR      r0,[r2,#4]
        0x08001058:    f001f896    ....    BL       gpio_bit_set ; 0x8002188
        0x0800105c:    bf00        ..      NOP      
        0x0800105e:    e7ef        ..      B        0x8001040 ; TurnOnLed + 8
    $d
        0x08001060:    20000158    X..     DCD    536871256
    $t
    i.USART0_IRQHandler
    USART0_IRQHandler
        0x08001064:    b510        ..      PUSH     {r4,lr}
        0x08001066:    490b        .I      LDR      r1,[pc,#44] ; [0x8001094] = 0x2000019c
        0x08001068:    6808        .h      LDR      r0,[r1,#0]
        0x0800106a:    490b        .I      LDR      r1,[pc,#44] ; [0x8001098] = 0x50305
        0x0800106c:    f001fe6d    ..m.    BL       usart_interrupt_flag_get ; 0x8002d4a
        0x08001070:    b170        p.      CBZ      r0,0x8001090 ; USART0_IRQHandler + 44
        0x08001072:    4908        .I      LDR      r1,[pc,#32] ; [0x8001094] = 0x2000019c
        0x08001074:    6808        .h      LDR      r0,[r1,#0]
        0x08001076:    4908        .I      LDR      r1,[pc,#32] ; [0x8001098] = 0x50305
        0x08001078:    f001fe5e    ..^.    BL       usart_interrupt_flag_clear ; 0x8002d38
        0x0800107c:    4905        .I      LDR      r1,[pc,#20] ; [0x8001094] = 0x2000019c
        0x0800107e:    6808        .h      LDR      r0,[r1,#0]
        0x08001080:    f001fdda    ....    BL       usart_data_receive ; 0x8002c38
        0x08001084:    b2c4        ..      UXTB     r4,r0
        0x08001086:    4620         F      MOV      r0,r4
        0x08001088:    4904        .I      LDR      r1,[pc,#16] ; [0x800109c] = 0x200001b4
        0x0800108a:    6809        .h      LDR      r1,[r1,#0]
        0x0800108c:    4788        .G      BLX      r1
        0x0800108e:    bf00        ..      NOP      
        0x08001090:    bd10        ..      POP      {r4,pc}
    $d
        0x08001092:    0000        ..      DCW    0
        0x08001094:    2000019c    ...     DCD    536871324
        0x08001098:    00050305    ....    DCD    328453
        0x0800109c:    200001b4    ...     DCD    536871348
    $t
    i.USART1_IRQHandler
    USART1_IRQHandler
        0x080010a0:    b510        ..      PUSH     {r4,lr}
        0x080010a2:    490d        .I      LDR      r1,[pc,#52] ; [0x80010d8] = 0x200001bc
        0x080010a4:    6808        .h      LDR      r0,[r1,#0]
        0x080010a6:    490d        .I      LDR      r1,[pc,#52] ; [0x80010dc] = 0x50305
        0x080010a8:    f001fe4f    ..O.    BL       usart_interrupt_flag_get ; 0x8002d4a
        0x080010ac:    b130        0.      CBZ      r0,0x80010bc ; USART1_IRQHandler + 28
        0x080010ae:    f001f979    ..y.    BL       prvvUARTRxISR ; 0x80023a4
        0x080010b2:    4909        .I      LDR      r1,[pc,#36] ; [0x80010d8] = 0x200001bc
        0x080010b4:    6808        .h      LDR      r0,[r1,#0]
        0x080010b6:    490a        .I      LDR      r1,[pc,#40] ; [0x80010e0] = 0x30305
        0x080010b8:    f001fe3e    ..>.    BL       usart_interrupt_flag_clear ; 0x8002d38
        0x080010bc:    4906        .I      LDR      r1,[pc,#24] ; [0x80010d8] = 0x200001bc
        0x080010be:    6808        .h      LDR      r0,[r1,#0]
        0x080010c0:    4908        .I      LDR      r1,[pc,#32] ; [0x80010e4] = 0x60306
        0x080010c2:    f001fe42    ..B.    BL       usart_interrupt_flag_get ; 0x8002d4a
        0x080010c6:    b130        0.      CBZ      r0,0x80010d6 ; USART1_IRQHandler + 54
        0x080010c8:    f001f974    ..t.    BL       prvvUARTTxReadyISR ; 0x80023b4
        0x080010cc:    4902        .I      LDR      r1,[pc,#8] ; [0x80010d8] = 0x200001bc
        0x080010ce:    6808        .h      LDR      r0,[r1,#0]
        0x080010d0:    4904        .I      LDR      r1,[pc,#16] ; [0x80010e4] = 0x60306
        0x080010d2:    f001fe31    ..1.    BL       usart_interrupt_flag_clear ; 0x8002d38
        0x080010d6:    bd10        ..      POP      {r4,pc}
    $d
        0x080010d8:    200001bc    ...     DCD    536871356
        0x080010dc:    00050305    ....    DCD    328453
        0x080010e0:    00030305    ....    DCD    197381
        0x080010e4:    00060306    ....    DCD    393990
    $t
    i.UartInit
    UartInit
        0x080010e8:    b510        ..      PUSH     {r4,lr}
        0x080010ea:    4604        .F      MOV      r4,r0
        0x080010ec:    4910        .I      LDR      r1,[pc,#64] ; [0x8001130] = 0x200001bc
        0x080010ee:    8888        ..      LDRH     r0,[r1,#4]
        0x080010f0:    f001fb08    ....    BL       rcu_periph_clock_enable ; 0x8002704
        0x080010f4:    490e        .I      LDR      r1,[pc,#56] ; [0x8001130] = 0x200001bc
        0x080010f6:    6808        .h      LDR      r0,[r1,#0]
        0x080010f8:    f001fda8    ....    BL       usart_deinit ; 0x8002c4c
        0x080010fc:    490c        .I      LDR      r1,[pc,#48] ; [0x8001130] = 0x200001bc
        0x080010fe:    6808        .h      LDR      r0,[r1,#0]
        0x08001100:    4621        !F      MOV      r1,r4
        0x08001102:    f001fd51    ..Q.    BL       usart_baudrate_set ; 0x8002ba8
        0x08001106:    490a        .I      LDR      r1,[pc,#40] ; [0x8001130] = 0x200001bc
        0x08001108:    6808        .h      LDR      r0,[r1,#0]
        0x0800110a:    2108        .!      MOVS     r1,#8
        0x0800110c:    f001fe43    ..C.    BL       usart_transmit_config ; 0x8002d96
        0x08001110:    4907        .I      LDR      r1,[pc,#28] ; [0x8001130] = 0x200001bc
        0x08001112:    6808        .h      LDR      r0,[r1,#0]
        0x08001114:    2104        .!      MOVS     r1,#4
        0x08001116:    f001fe34    ..4.    BL       usart_receive_config ; 0x8002d82
        0x0800111a:    4905        .I      LDR      r1,[pc,#20] ; [0x8001130] = 0x200001bc
        0x0800111c:    7d08        .}      LDRB     r0,[r1,#0x14]
        0x0800111e:    2200        ."      MOVS     r2,#0
        0x08001120:    4611        .F      MOV      r1,r2
        0x08001122:    f001f8af    ....    BL       nvic_irq_enable ; 0x8002284
        0x08001126:    4902        .I      LDR      r1,[pc,#8] ; [0x8001130] = 0x200001bc
        0x08001128:    6808        .h      LDR      r0,[r1,#0]
        0x0800112a:    f001fdd7    ....    BL       usart_enable ; 0x8002cdc
        0x0800112e:    bd10        ..      POP      {r4,pc}
    $d
        0x08001130:    200001bc    ...     DCD    536871356
    $t
    i.UsageFault_Handler
    UsageFault_Handler
        0x08001134:    bf00        ..      NOP      
        0x08001136:    e7fe        ..      B        0x8001136 ; UsageFault_Handler + 2
    i.Usb2ComDrvInit
    Usb2ComDrvInit
        0x08001138:    b510        ..      PUSH     {r4,lr}
        0x0800113a:    f000f805    ....    BL       Usb2ComGpioInit ; 0x8001148
        0x0800113e:    f44f30e1    O..0    MOV      r0,#0x1c200
        0x08001142:    f000f817    ....    BL       Usb2ComUartInit ; 0x8001174
        0x08001146:    bd10        ..      POP      {r4,pc}
    i.Usb2ComGpioInit
    Usb2ComGpioInit
        0x08001148:    b510        ..      PUSH     {r4,lr}
        0x0800114a:    4909        .I      LDR      r1,[pc,#36] ; [0x8001170] = 0x2000019c
        0x0800114c:    88c8        ..      LDRH     r0,[r1,#6]
        0x0800114e:    f001fad9    ....    BL       rcu_periph_clock_enable ; 0x8002704
        0x08001152:    4907        .I      LDR      r1,[pc,#28] ; [0x8001170] = 0x2000019c
        0x08001154:    68cb        .h      LDR      r3,[r1,#0xc]
        0x08001156:    2201        ."      MOVS     r2,#1
        0x08001158:    6888        .h      LDR      r0,[r1,#8]
        0x0800115a:    2118        .!      MOVS     r1,#0x18
        0x0800115c:    f001f81b    ....    BL       gpio_init ; 0x8002196
        0x08001160:    4903        .I      LDR      r1,[pc,#12] ; [0x8001170] = 0x2000019c
        0x08001162:    690b        .i      LDR      r3,[r1,#0x10]
        0x08001164:    2201        ."      MOVS     r2,#1
        0x08001166:    6888        .h      LDR      r0,[r1,#8]
        0x08001168:    2148        H!      MOVS     r1,#0x48
        0x0800116a:    f001f814    ....    BL       gpio_init ; 0x8002196
        0x0800116e:    bd10        ..      POP      {r4,pc}
    $d
        0x08001170:    2000019c    ...     DCD    536871324
    $t
    i.Usb2ComUartInit
    Usb2ComUartInit
        0x08001174:    b510        ..      PUSH     {r4,lr}
        0x08001176:    4604        .F      MOV      r4,r0
        0x08001178:    4913        .I      LDR      r1,[pc,#76] ; [0x80011c8] = 0x2000019c
        0x0800117a:    8888        ..      LDRH     r0,[r1,#4]
        0x0800117c:    f001fac2    ....    BL       rcu_periph_clock_enable ; 0x8002704
        0x08001180:    4911        .I      LDR      r1,[pc,#68] ; [0x80011c8] = 0x2000019c
        0x08001182:    6808        .h      LDR      r0,[r1,#0]
        0x08001184:    f001fd62    ..b.    BL       usart_deinit ; 0x8002c4c
        0x08001188:    490f        .I      LDR      r1,[pc,#60] ; [0x80011c8] = 0x2000019c
        0x0800118a:    6808        .h      LDR      r0,[r1,#0]
        0x0800118c:    4621        !F      MOV      r1,r4
        0x0800118e:    f001fd0b    ....    BL       usart_baudrate_set ; 0x8002ba8
        0x08001192:    490d        .I      LDR      r1,[pc,#52] ; [0x80011c8] = 0x2000019c
        0x08001194:    6808        .h      LDR      r0,[r1,#0]
        0x08001196:    2108        .!      MOVS     r1,#8
        0x08001198:    f001fdfd    ....    BL       usart_transmit_config ; 0x8002d96
        0x0800119c:    490a        .I      LDR      r1,[pc,#40] ; [0x80011c8] = 0x2000019c
        0x0800119e:    6808        .h      LDR      r0,[r1,#0]
        0x080011a0:    2104        .!      MOVS     r1,#4
        0x080011a2:    f001fdee    ....    BL       usart_receive_config ; 0x8002d82
        0x080011a6:    4908        .I      LDR      r1,[pc,#32] ; [0x80011c8] = 0x2000019c
        0x080011a8:    6808        .h      LDR      r0,[r1,#0]
        0x080011aa:    f2403105    @..1    MOV      r1,#0x305
        0x080011ae:    f001fdb6    ....    BL       usart_interrupt_enable ; 0x8002d1e
        0x080011b2:    4905        .I      LDR      r1,[pc,#20] ; [0x80011c8] = 0x2000019c
        0x080011b4:    7d08        .}      LDRB     r0,[r1,#0x14]
        0x080011b6:    2200        ."      MOVS     r2,#0
        0x080011b8:    4611        .F      MOV      r1,r2
        0x080011ba:    f001f863    ..c.    BL       nvic_irq_enable ; 0x8002284
        0x080011be:    4902        .I      LDR      r1,[pc,#8] ; [0x80011c8] = 0x2000019c
        0x080011c0:    6808        .h      LDR      r0,[r1,#0]
        0x080011c2:    f001fd8b    ....    BL       usart_enable ; 0x8002cdc
        0x080011c6:    bd10        ..      POP      {r4,pc}
    $d
        0x080011c8:    2000019c    ...     DCD    536871324
    $t
    i.WaitNorflashWriteEnd
    WaitNorflashWriteEnd
        0x080011cc:    b510        ..      PUSH     {r4,lr}
        0x080011ce:    4c0a        .L      LDR      r4,[pc,#40] ; [0x80011f8] = 0x186a0
        0x080011d0:    f7fffd72    ..r.    BL       SPIStart ; 0x8000cb8
        0x080011d4:    2005        .       MOVS     r0,#5
        0x080011d6:    f7fffd4d    ..M.    BL       SPIReadWriteByte ; 0x8000c74
        0x080011da:    e002        ..      B        0x80011e2 ; WaitNorflashWriteEnd + 22
        0x080011dc:    1e64        d.      SUBS     r4,r4,#1
        0x080011de:    b904        ..      CBNZ     r4,0x80011e2 ; WaitNorflashWriteEnd + 22
        0x080011e0:    e006        ..      B        0x80011f0 ; WaitNorflashWriteEnd + 36
        0x080011e2:    20ff        .       MOVS     r0,#0xff
        0x080011e4:    f7fffd46    ..F.    BL       SPIReadWriteByte ; 0x8000c74
        0x080011e8:    f0000001    ....    AND      r0,r0,#1
        0x080011ec:    2800        .(      CMP      r0,#0
        0x080011ee:    d1f5        ..      BNE      0x80011dc ; WaitNorflashWriteEnd + 16
        0x080011f0:    bf00        ..      NOP      
        0x080011f2:    f7fffd69    ..i.    BL       SPIStop ; 0x8000cc8
        0x080011f6:    bd10        ..      POP      {r4,pc}
    $d
        0x080011f8:    000186a0    ....    DCD    100000
    $t
    i.WriteDataWithCheck
    WriteDataWithCheck
        0x080011fc:    b570        p.      PUSH     {r4-r6,lr}
        0x080011fe:    4606        .F      MOV      r6,r0
        0x08001200:    460d        .F      MOV      r5,r1
        0x08001202:    4614        .F      MOV      r4,r2
        0x08001204:    1e61        a.      SUBS     r1,r4,#1
        0x08001206:    4628        (F      MOV      r0,r5
        0x08001208:    f7fff8e0    ....    BL       CalcCrc8 ; 0x80003cc
        0x0800120c:    1e61        a.      SUBS     r1,r4,#1
        0x0800120e:    5468        hT      STRB     r0,[r5,r1]
        0x08001210:    4621        !F      MOV      r1,r4
        0x08001212:    4630        0F      MOV      r0,r6
        0x08001214:    f7fff94d    ..M.    BL       EraseNorflashForWrite ; 0x80004b2
        0x08001218:    4622        "F      MOV      r2,r4
        0x0800121a:    4629        )F      MOV      r1,r5
        0x0800121c:    4630        0F      MOV      r0,r6
        0x0800121e:    f000f802    ....    BL       WriteNorflashData ; 0x8001226
        0x08001222:    2001        .       MOVS     r0,#1
        0x08001224:    bd70        p.      POP      {r4-r6,pc}
    i.WriteNorflashData
    WriteNorflashData
        0x08001226:    e92d41f0    -..A    PUSH     {r4-r8,lr}
        0x0800122a:    4606        .F      MOV      r6,r0
        0x0800122c:    460f        .F      MOV      r7,r1
        0x0800122e:    4614        .F      MOV      r4,r2
        0x08001230:    b2f5        ..      UXTB     r5,r6
        0x08001232:    f5c57080    ...p    RSB      r0,r5,#0x100
        0x08001236:    42a0        .B      CMP      r0,r4
        0x08001238:    d22a        *.      BCS      0x8001290 ; WriteNorflashData + 106
        0x0800123a:    f5c57280    ...r    RSB      r2,r5,#0x100
        0x0800123e:    4639        9F      MOV      r1,r7
        0x08001240:    4630        0F      MOV      r0,r6
        0x08001242:    f7fffc0d    ....    BL       ProgramNorflashPage ; 0x8000a60
        0x08001246:    f5c57080    ...p    RSB      r0,r5,#0x100
        0x0800124a:    4406        .D      ADD      r6,r6,r0
        0x0800124c:    f5c57080    ...p    RSB      r0,r5,#0x100
        0x08001250:    4407        .D      ADD      r7,r7,r0
        0x08001252:    f5c57080    ...p    RSB      r0,r5,#0x100
        0x08001256:    1a24        $.      SUBS     r4,r4,r0
        0x08001258:    f3c42807    ...(    UBFX     r8,r4,#8,#8
        0x0800125c:    e00b        ..      B        0x8001276 ; WriteNorflashData + 80
        0x0800125e:    f44f7280    O..r    MOV      r2,#0x100
        0x08001262:    4639        9F      MOV      r1,r7
        0x08001264:    4630        0F      MOV      r0,r6
        0x08001266:    f7fffbfb    ....    BL       ProgramNorflashPage ; 0x8000a60
        0x0800126a:    f5067680    ...v    ADD      r6,r6,#0x100
        0x0800126e:    f5077780    ...w    ADD      r7,r7,#0x100
        0x08001272:    f5a47480    ...t    SUB      r4,r4,#0x100
        0x08001276:    f1b80000    ....    SUBS     r0,r8,#0
        0x0800127a:    f1a80101    ....    SUB      r1,r8,#1
        0x0800127e:    f00108ff    ....    AND      r8,r1,#0xff
        0x08001282:    d1ec        ..      BNE      0x800125e ; WriteNorflashData + 56
        0x08001284:    4622        "F      MOV      r2,r4
        0x08001286:    4639        9F      MOV      r1,r7
        0x08001288:    4630        0F      MOV      r0,r6
        0x0800128a:    f7fffbe9    ....    BL       ProgramNorflashPage ; 0x8000a60
        0x0800128e:    e004        ..      B        0x800129a ; WriteNorflashData + 116
        0x08001290:    4622        "F      MOV      r2,r4
        0x08001292:    4639        9F      MOV      r1,r7
        0x08001294:    4630        0F      MOV      r0,r6
        0x08001296:    f7fffbe3    ....    BL       ProgramNorflashPage ; 0x8000a60
        0x0800129a:    e8bd81f0    ....    POP      {r4-r8,pc}
        0x0800129e:    0000        ..      MOVS     r0,r0
    i.WriteRegsCb
    WriteRegsCb
        0x080012a0:    e92d47f0    -..G    PUSH     {r4-r10,lr}
        0x080012a4:    4681        .F      MOV      r9,r0
        0x080012a6:    468a        .F      MOV      r10,r1
        0x080012a8:    4616        .F      MOV      r6,r2
        0x080012aa:    b916        ..      CBNZ     r6,0x80012b2 ; WriteRegsCb + 18
        0x080012ac:    2002        .       MOVS     r0,#2
        0x080012ae:    e8bd87f0    ....    POP      {r4-r10,pc}
        0x080012b2:    2500        .%      MOVS     r5,#0
        0x080012b4:    e034        4.      B        0x8001320 ; WriteRegsCb + 128
        0x080012b6:    2400        .$      MOVS     r4,#0
        0x080012b8:    2700        .'      MOVS     r7,#0
        0x080012ba:    e02b        +.      B        0x8001314 ; WriteRegsCb + 116
        0x080012bc:    481a        .H      LDR      r0,[pc,#104] ; [0x8001328] = 0x20000028
        0x080012be:    eb001007    ....    ADD      r0,r0,r7,LSL #4
        0x080012c2:    8840        @.      LDRH     r0,[r0,#2]
        0x080012c4:    eb090105    ....    ADD      r1,r9,r5
        0x080012c8:    4288        .B      CMP      r0,r1
        0x080012ca:    d000        ..      BEQ      0x80012ce ; WriteRegsCb + 46
        0x080012cc:    e021        !.      B        0x8001312 ; WriteRegsCb + 114
        0x080012ce:    4816        .H      LDR      r0,[pc,#88] ; [0x8001328] = 0x20000028
        0x080012d0:    eb001407    ....    ADD      r4,r0,r7,LSL #4
        0x080012d4:    7820         x      LDRB     r0,[r4,#0]
        0x080012d6:    f0000002    ....    AND      r0,r0,#2
        0x080012da:    b908        ..      CBNZ     r0,0x80012e0 ; WriteRegsCb + 64
        0x080012dc:    2002        .       MOVS     r0,#2
        0x080012de:    e7e6        ..      B        0x80012ae ; WriteRegsCb + 14
        0x080012e0:    f8160015    ....    LDRB     r0,[r6,r5,LSL #1]
        0x080012e4:    f44f417f    O..A    MOV      r1,#0xff00
        0x080012e8:    ea012000    ...     AND      r0,r1,r0,LSL #8
        0x080012ec:    0069        i.      LSLS     r1,r5,#1
        0x080012ee:    1c49        I.      ADDS     r1,r1,#1
        0x080012f0:    5c71        q\      LDRB     r1,[r6,r1]
        0x080012f2:    ea400801    @...    ORR      r8,r0,r1
        0x080012f6:    88a0        ..      LDRH     r0,[r4,#4]
        0x080012f8:    4540        @E      CMP      r0,r8
        0x080012fa:    dc02        ..      BGT      0x8001302 ; WriteRegsCb + 98
        0x080012fc:    88e0        ..      LDRH     r0,[r4,#6]
        0x080012fe:    4540        @E      CMP      r0,r8
        0x08001300:    da01        ..      BGE      0x8001306 ; WriteRegsCb + 102
        0x08001302:    2002        .       MOVS     r0,#2
        0x08001304:    e7d3        ..      B        0x80012ae ; WriteRegsCb + 14
        0x08001306:    68e0        .h      LDR      r0,[r4,#0xc]
        0x08001308:    b110        ..      CBZ      r0,0x8001310 ; WriteRegsCb + 112
        0x0800130a:    4640        @F      MOV      r0,r8
        0x0800130c:    68e1        .h      LDR      r1,[r4,#0xc]
        0x0800130e:    4788        .G      BLX      r1
        0x08001310:    bf00        ..      NOP      
        0x08001312:    1c7f        ..      ADDS     r7,r7,#1
        0x08001314:    2f04        ./      CMP      r7,#4
        0x08001316:    d3d1        ..      BCC      0x80012bc ; WriteRegsCb + 28
        0x08001318:    b90c        ..      CBNZ     r4,0x800131e ; WriteRegsCb + 126
        0x0800131a:    2001        .       MOVS     r0,#1
        0x0800131c:    e7c7        ..      B        0x80012ae ; WriteRegsCb + 14
        0x0800131e:    1c6d        m.      ADDS     r5,r5,#1
        0x08001320:    4555        UE      CMP      r5,r10
        0x08001322:    d3c8        ..      BCC      0x80012b6 ; WriteRegsCb + 22
        0x08001324:    2000        .       MOVS     r0,#0
        0x08001326:    e7c2        ..      B        0x80012ae ; WriteRegsCb + 14
    $d
        0x08001328:    20000028    (..     DCD    536870952
    $t
    i.WriteSysParam
    WriteSysParam
        0x0800132c:    b570        p.      PUSH     {r4-r6,lr}
        0x0800132e:    4604        .F      MOV      r4,r0
        0x08001330:    2504        .%      MOVS     r5,#4
        0x08001332:    f5b55f80    ..._    CMP      r5,#0x1000
        0x08001336:    dd01        ..      BLE      0x800133c ; WriteSysParam + 16
        0x08001338:    2000        .       MOVS     r0,#0
        0x0800133a:    bd70        p.      POP      {r4-r6,pc}
        0x0800133c:    462a        *F      MOV      r2,r5
        0x0800133e:    4621        !F      MOV      r1,r4
        0x08001340:    2000        .       MOVS     r0,#0
        0x08001342:    f7ffff5b    ..[.    BL       WriteDataWithCheck ; 0x80011fc
        0x08001346:    b908        ..      CBNZ     r0,0x800134c ; WriteSysParam + 32
        0x08001348:    2000        .       MOVS     r0,#0
        0x0800134a:    e7f6        ..      B        0x800133a ; WriteSysParam + 14
        0x0800134c:    462a        *F      MOV      r2,r5
        0x0800134e:    4621        !F      MOV      r1,r4
        0x08001350:    f44f5080    O..P    MOV      r0,#0x1000
        0x08001354:    f7ffff52    ..R.    BL       WriteDataWithCheck ; 0x80011fc
        0x08001358:    2001        .       MOVS     r0,#1
        0x0800135a:    e7ee        ..      B        0x800133a ; WriteSysParam + 14
    i.__0printf$8
    __0printf$8
    __1printf$8
    __2printf
        0x0800135c:    b40f        ..      PUSH     {r0-r3}
        0x0800135e:    4b05        .K      LDR      r3,[pc,#20] ; [0x8001374] = 0x8002145
        0x08001360:    b510        ..      PUSH     {r4,lr}
        0x08001362:    a903        ..      ADD      r1,sp,#0xc
        0x08001364:    4a04        .J      LDR      r2,[pc,#16] ; [0x8001378] = 0x200001d8
        0x08001366:    9802        ..      LDR      r0,[sp,#8]
        0x08001368:    f000f866    ..f.    BL       _printf_core ; 0x8001438
        0x0800136c:    bc10        ..      POP      {r4}
        0x0800136e:    f85dfb14    ]...    LDR      pc,[sp],#0x14
    $d
        0x08001372:    0000        ..      DCW    0
        0x08001374:    08002145    E!..    DCD    134226245
        0x08001378:    200001d8    ...     DCD    536871384
    $t
    i.__aeabi_assert
    __aeabi_assert
        0x0800137c:    b50e        ..      PUSH     {r1-r3,lr}
        0x0800137e:    4607        .F      MOV      r7,r0
        0x08001380:    460e        .F      MOV      r6,r1
        0x08001382:    4614        .F      MOV      r4,r2
        0x08001384:    4919        .I      LDR      r1,[pc,#100] ; [0x80013ec] = 0x200001d4
        0x08001386:    a01a        ..      ADR      r0,{pc}+0x6a ; 0x80013f0
        0x08001388:    f000fef0    ....    BL       fputs ; 0x800216c
        0x0800138c:    4917        .I      LDR      r1,[pc,#92] ; [0x80013ec] = 0x200001d4
        0x0800138e:    4638        8F      MOV      r0,r7
        0x08001390:    f000feec    ....    BL       fputs ; 0x800216c
        0x08001394:    4915        .I      LDR      r1,[pc,#84] ; [0x80013ec] = 0x200001d4
        0x08001396:    a01c        ..      ADR      r0,{pc}+0x72 ; 0x8001408
        0x08001398:    f000fee8    ....    BL       fputs ; 0x800216c
        0x0800139c:    4913        .I      LDR      r1,[pc,#76] ; [0x80013ec] = 0x200001d4
        0x0800139e:    4630        0F      MOV      r0,r6
        0x080013a0:    f000fee4    ....    BL       fputs ; 0x800216c
        0x080013a4:    4911        .I      LDR      r1,[pc,#68] ; [0x80013ec] = 0x200001d4
        0x080013a6:    a01a        ..      ADR      r0,{pc}+0x6a ; 0x8001410
        0x080013a8:    f000fee0    ....    BL       fputs ; 0x800216c
        0x080013ac:    ad03        ..      ADD      r5,sp,#0xc
        0x080013ae:    2100        .!      MOVS     r1,#0
        0x080013b0:    1e68        h.      SUBS     r0,r5,#1
        0x080013b2:    4605        .F      MOV      r5,r0
        0x080013b4:    7001        .p      STRB     r1,[r0,#0]
        0x080013b6:    210a        .!      MOVS     r1,#0xa
        0x080013b8:    1e68        h.      SUBS     r0,r5,#1
        0x080013ba:    4605        .F      MOV      r5,r0
        0x080013bc:    7001        .p      STRB     r1,[r0,#0]
        0x080013be:    e00c        ..      B        0x80013da ; __aeabi_assert + 94
        0x080013c0:    200a        .       MOVS     r0,#0xa
        0x080013c2:    fb94f1f0    ....    SDIV     r1,r4,r0
        0x080013c6:    fb004011    ...@    MLS      r0,r0,r1,r4
        0x080013ca:    3030        00      ADDS     r0,r0,#0x30
        0x080013cc:    b2c1        ..      UXTB     r1,r0
        0x080013ce:    1e68        h.      SUBS     r0,r5,#1
        0x080013d0:    4605        .F      MOV      r5,r0
        0x080013d2:    7001        .p      STRB     r1,[r0,#0]
        0x080013d4:    200a        .       MOVS     r0,#0xa
        0x080013d6:    fb94f4f0    ....    SDIV     r4,r4,r0
        0x080013da:    2c00        .,      CMP      r4,#0
        0x080013dc:    dcf0        ..      BGT      0x80013c0 ; __aeabi_assert + 68
        0x080013de:    4903        .I      LDR      r1,[pc,#12] ; [0x80013ec] = 0x200001d4
        0x080013e0:    4628        (F      MOV      r0,r5
        0x080013e2:    f000fec3    ....    BL       fputs ; 0x800216c
        0x080013e6:    f000fa58    ..X.    BL       abort ; 0x800189a
    $d
        0x080013ea:    0000        ..      DCW    0
        0x080013ec:    200001d4    ...     DCD    536871380
        0x080013f0:    202a2a2a    ***     DCD    539634218
        0x080013f4:    65737361    asse    DCD    1702064993
        0x080013f8:    6f697472    rtio    DCD    1869182066
        0x080013fc:    6166206e    n fa    DCD    1634082926
        0x08001400:    64656c69    iled    DCD    1684368489
        0x08001404:    0000203a    : ..    DCD    8250
        0x08001408:    6966202c    , fi    DCD    1768300588
        0x0800140c:    0020656c    le .    DCD    2123116
        0x08001410:    696c202c    , li    DCD    1768693804
        0x08001414:    0020656e    ne .    DCD    2123118
    $t
    i.__scatterload_copy
    __scatterload_copy
        0x08001418:    e002        ..      B        0x8001420 ; __scatterload_copy + 8
        0x0800141a:    c808        ..      LDM      r0!,{r3}
        0x0800141c:    1f12        ..      SUBS     r2,r2,#4
        0x0800141e:    c108        ..      STM      r1!,{r3}
        0x08001420:    2a00        .*      CMP      r2,#0
        0x08001422:    d1fa        ..      BNE      0x800141a ; __scatterload_copy + 2
        0x08001424:    4770        pG      BX       lr
    i.__scatterload_null
    __scatterload_null
        0x08001426:    4770        pG      BX       lr
    i.__scatterload_zeroinit
    __scatterload_zeroinit
        0x08001428:    2000        .       MOVS     r0,#0
        0x0800142a:    e001        ..      B        0x8001430 ; __scatterload_zeroinit + 8
        0x0800142c:    c101        ..      STM      r1!,{r0}
        0x0800142e:    1f12        ..      SUBS     r2,r2,#4
        0x08001430:    2a00        .*      CMP      r2,#0
        0x08001432:    d1fb        ..      BNE      0x800142c ; __scatterload_zeroinit + 4
        0x08001434:    4770        pG      BX       lr
        0x08001436:    0000        ..      MOVS     r0,r0
    i._printf_core
    _printf_core
        0x08001438:    e92d4fff    -..O    PUSH     {r0-r11,lr}
        0x0800143c:    b08d        ..      SUB      sp,sp,#0x34
        0x0800143e:    460f        .F      MOV      r7,r1
        0x08001440:    4605        .F      MOV      r5,r0
        0x08001442:    2600        .&      MOVS     r6,#0
        0x08001444:    e006        ..      B        0x8001454 ; _printf_core + 28
        0x08001446:    2825        %(      CMP      r0,#0x25
        0x08001448:    d00b        ..      BEQ      0x8001462 ; _printf_core + 42
        0x0800144a:    e9dd120f    ....    LDRD     r1,r2,[sp,#0x3c]
        0x0800144e:    4790        .G      BLX      r2
        0x08001450:    1c6d        m.      ADDS     r5,r5,#1
        0x08001452:    1c76        v.      ADDS     r6,r6,#1
        0x08001454:    7828        (x      LDRB     r0,[r5,#0]
        0x08001456:    2800        .(      CMP      r0,#0
        0x08001458:    d1f5        ..      BNE      0x8001446 ; _printf_core + 14
        0x0800145a:    b011        ..      ADD      sp,sp,#0x44
        0x0800145c:    4630        0F      MOV      r0,r6
        0x0800145e:    e8bd8ff0    ....    POP      {r4-r11,pc}
        0x08001462:    2400        .$      MOVS     r4,#0
        0x08001464:    46a2        .F      MOV      r10,r4
        0x08001466:    46a1        .F      MOV      r9,r4
        0x08001468:    2201        ."      MOVS     r2,#1
        0x0800146a:    49ec        .I      LDR      r1,[pc,#944] ; [0x800181c] = 0x12809
        0x0800146c:    e000        ..      B        0x8001470 ; _printf_core + 56
        0x0800146e:    4304        .C      ORRS     r4,r4,r0
        0x08001470:    f8153f01    ...?    LDRB     r3,[r5,#1]!
        0x08001474:    3b20         ;      SUBS     r3,r3,#0x20
        0x08001476:    fa02f003    ....    LSL      r0,r2,r3
        0x0800147a:    4208        .B      TST      r0,r1
        0x0800147c:    d1f7        ..      BNE      0x800146e ; _printf_core + 54
        0x0800147e:    7828        (x      LDRB     r0,[r5,#0]
        0x08001480:    282a        *(      CMP      r0,#0x2a
        0x08001482:    d010        ..      BEQ      0x80014a6 ; _printf_core + 110
        0x08001484:    f06f022f    o./.    MVN      r2,#0x2f
        0x08001488:    7828        (x      LDRB     r0,[r5,#0]
        0x0800148a:    f1a00130    ..0.    SUB      r1,r0,#0x30
        0x0800148e:    2909        .)      CMP      r1,#9
        0x08001490:    d814        ..      BHI      0x80014bc ; _printf_core + 132
        0x08001492:    eb0a018a    ....    ADD      r1,r10,r10,LSL #2
        0x08001496:    eb020141    ..A.    ADD      r1,r2,r1,LSL #1
        0x0800149a:    f0440402    D...    ORR      r4,r4,#2
        0x0800149e:    eb000a01    ....    ADD      r10,r0,r1
        0x080014a2:    1c6d        m.      ADDS     r5,r5,#1
        0x080014a4:    e7f0        ..      B        0x8001488 ; _printf_core + 80
        0x080014a6:    cf01        ..      LDM      r7!,{r0}
        0x080014a8:    ea5f0a00    _...    MOVS     r10,r0
        0x080014ac:    d503        ..      BPL      0x80014b6 ; _printf_core + 126
        0x080014ae:    f4445400    D..T    ORR      r4,r4,#0x2000
        0x080014b2:    f1ca0a00    ....    RSB      r10,r10,#0
        0x080014b6:    f0440402    D...    ORR      r4,r4,#2
        0x080014ba:    1c6d        m.      ADDS     r5,r5,#1
        0x080014bc:    7828        (x      LDRB     r0,[r5,#0]
        0x080014be:    282e        .(      CMP      r0,#0x2e
        0x080014c0:    d117        ..      BNE      0x80014f2 ; _printf_core + 186
        0x080014c2:    f8150f01    ....    LDRB     r0,[r5,#1]!
        0x080014c6:    f0440404    D...    ORR      r4,r4,#4
        0x080014ca:    282a        *(      CMP      r0,#0x2a
        0x080014cc:    d00e        ..      BEQ      0x80014ec ; _printf_core + 180
        0x080014ce:    f06f022f    o./.    MVN      r2,#0x2f
        0x080014d2:    7828        (x      LDRB     r0,[r5,#0]
        0x080014d4:    f1a00130    ..0.    SUB      r1,r0,#0x30
        0x080014d8:    2909        .)      CMP      r1,#9
        0x080014da:    d80a        ..      BHI      0x80014f2 ; _printf_core + 186
        0x080014dc:    eb090189    ....    ADD      r1,r9,r9,LSL #2
        0x080014e0:    eb020141    ..A.    ADD      r1,r2,r1,LSL #1
        0x080014e4:    eb000901    ....    ADD      r9,r0,r1
        0x080014e8:    1c6d        m.      ADDS     r5,r5,#1
        0x080014ea:    e7f2        ..      B        0x80014d2 ; _printf_core + 154
        0x080014ec:    f8579b04    W...    LDR      r9,[r7],#4
        0x080014f0:    1c6d        m.      ADDS     r5,r5,#1
        0x080014f2:    7828        (x      LDRB     r0,[r5,#0]
        0x080014f4:    286c        l(      CMP      r0,#0x6c
        0x080014f6:    d00f        ..      BEQ      0x8001518 ; _printf_core + 224
        0x080014f8:    dc06        ..      BGT      0x8001508 ; _printf_core + 208
        0x080014fa:    284c        L(      CMP      r0,#0x4c
        0x080014fc:    d017        ..      BEQ      0x800152e ; _printf_core + 246
        0x080014fe:    2868        h(      CMP      r0,#0x68
        0x08001500:    d00d        ..      BEQ      0x800151e ; _printf_core + 230
        0x08001502:    286a        j(      CMP      r0,#0x6a
        0x08001504:    d114        ..      BNE      0x8001530 ; _printf_core + 248
        0x08001506:    e004        ..      B        0x8001512 ; _printf_core + 218
        0x08001508:    2874        t(      CMP      r0,#0x74
        0x0800150a:    d010        ..      BEQ      0x800152e ; _printf_core + 246
        0x0800150c:    287a        z(      CMP      r0,#0x7a
        0x0800150e:    d10f        ..      BNE      0x8001530 ; _printf_core + 248
        0x08001510:    e00d        ..      B        0x800152e ; _printf_core + 246
        0x08001512:    f4441400    D...    ORR      r4,r4,#0x200000
        0x08001516:    e00a        ..      B        0x800152e ; _printf_core + 246
        0x08001518:    f4441480    D...    ORR      r4,r4,#0x100000
        0x0800151c:    e001        ..      B        0x8001522 ; _printf_core + 234
        0x0800151e:    f4441440    D.@.    ORR      r4,r4,#0x300000
        0x08001522:    7869        ix      LDRB     r1,[r5,#1]
        0x08001524:    4281        .B      CMP      r1,r0
        0x08001526:    d102        ..      BNE      0x800152e ; _printf_core + 246
        0x08001528:    f5041480    ....    ADD      r4,r4,#0x100000
        0x0800152c:    1c6d        m.      ADDS     r5,r5,#1
        0x0800152e:    1c6d        m.      ADDS     r5,r5,#1
        0x08001530:    782a        *x      LDRB     r2,[r5,#0]
        0x08001532:    2a6e        n*      CMP      r2,#0x6e
        0x08001534:    d01f        ..      BEQ      0x8001576 ; _printf_core + 318
        0x08001536:    dc0c        ..      BGT      0x8001552 ; _printf_core + 282
        0x08001538:    2a63        c*      CMP      r2,#0x63
        0x0800153a:    d031        1.      BEQ      0x80015a0 ; _printf_core + 360
        0x0800153c:    dc04        ..      BGT      0x8001548 ; _printf_core + 272
        0x0800153e:    2a00        .*      CMP      r2,#0
        0x08001540:    d08b        ..      BEQ      0x800145a ; _printf_core + 34
        0x08001542:    2a58        X*      CMP      r2,#0x58
        0x08001544:    d111        ..      BNE      0x800156a ; _printf_core + 306
        0x08001546:    e0a3        ..      B        0x8001690 ; _printf_core + 600
        0x08001548:    2a64        d*      CMP      r2,#0x64
        0x0800154a:    d068        h.      BEQ      0x800161e ; _printf_core + 486
        0x0800154c:    2a69        i*      CMP      r2,#0x69
        0x0800154e:    d10c        ..      BNE      0x800156a ; _printf_core + 306
        0x08001550:    e065        e.      B        0x800161e ; _printf_core + 486
        0x08001552:    2a73        s*      CMP      r2,#0x73
        0x08001554:    d02e        ..      BEQ      0x80015b4 ; _printf_core + 380
        0x08001556:    dc04        ..      BGT      0x8001562 ; _printf_core + 298
        0x08001558:    2a6f        o*      CMP      r2,#0x6f
        0x0800155a:    d073        s.      BEQ      0x8001644 ; _printf_core + 524
        0x0800155c:    2a70        p*      CMP      r2,#0x70
        0x0800155e:    d104        ..      BNE      0x800156a ; _printf_core + 306
        0x08001560:    e09b        ..      B        0x800169a ; _printf_core + 610
        0x08001562:    2a75        u*      CMP      r2,#0x75
        0x08001564:    d06f        o.      BEQ      0x8001646 ; _printf_core + 526
        0x08001566:    2a78        x*      CMP      r2,#0x78
        0x08001568:    d06e        n.      BEQ      0x8001648 ; _printf_core + 528
        0x0800156a:    4610        .F      MOV      r0,r2
        0x0800156c:    e9dd120f    ....    LDRD     r1,r2,[sp,#0x3c]
        0x08001570:    4790        .G      BLX      r2
        0x08001572:    1c76        v.      ADDS     r6,r6,#1
        0x08001574:    e150        P.      B        0x8001818 ; _printf_core + 992
        0x08001576:    f3c45002    ...P    UBFX     r0,r4,#20,#3
        0x0800157a:    2802        .(      CMP      r0,#2
        0x0800157c:    d006        ..      BEQ      0x800158c ; _printf_core + 340
        0x0800157e:    2803        .(      CMP      r0,#3
        0x08001580:    d009        ..      BEQ      0x8001596 ; _printf_core + 350
        0x08001582:    2804        .(      CMP      r0,#4
        0x08001584:    cf01        ..      LDM      r7!,{r0}
        0x08001586:    d009        ..      BEQ      0x800159c ; _printf_core + 356
        0x08001588:    6006        .`      STR      r6,[r0,#0]
        0x0800158a:    e145        E.      B        0x8001818 ; _printf_core + 992
        0x0800158c:    cf01        ..      LDM      r7!,{r0}
        0x0800158e:    17f1        ..      ASRS     r1,r6,#31
        0x08001590:    e9c06100    ...a    STRD     r6,r1,[r0,#0]
        0x08001594:    e140        @.      B        0x8001818 ; _printf_core + 992
        0x08001596:    cf01        ..      LDM      r7!,{r0}
        0x08001598:    8006        ..      STRH     r6,[r0,#0]
        0x0800159a:    e13d        =.      B        0x8001818 ; _printf_core + 992
        0x0800159c:    7006        .p      STRB     r6,[r0,#0]
        0x0800159e:    e13b        ;.      B        0x8001818 ; _printf_core + 992
        0x080015a0:    f8170b04    ....    LDRB     r0,[r7],#4
        0x080015a4:    f88d0000    ....    STRB     r0,[sp,#0]
        0x080015a8:    2000        .       MOVS     r0,#0
        0x080015aa:    f88d0001    ....    STRB     r0,[sp,#1]
        0x080015ae:    46eb        .F      MOV      r11,sp
        0x080015b0:    2001        .       MOVS     r0,#1
        0x080015b2:    e003        ..      B        0x80015bc ; _printf_core + 388
        0x080015b4:    f857bb04    W...    LDR      r11,[r7],#4
        0x080015b8:    f04f30ff    O..0    MOV      r0,#0xffffffff
        0x080015bc:    0761        a.      LSLS     r1,r4,#29
        0x080015be:    f04f0100    O...    MOV      r1,#0
        0x080015c2:    d402        ..      BMI      0x80015ca ; _printf_core + 402
        0x080015c4:    e00d        ..      B        0x80015e2 ; _printf_core + 426
        0x080015c6:    f1080101    ....    ADD      r1,r8,#1
        0x080015ca:    4688        .F      MOV      r8,r1
        0x080015cc:    4549        IE      CMP      r1,r9
        0x080015ce:    da0f        ..      BGE      0x80015f0 ; _printf_core + 440
        0x080015d0:    4580        .E      CMP      r8,r0
        0x080015d2:    dbf8        ..      BLT      0x80015c6 ; _printf_core + 398
        0x080015d4:    f81b1008    ....    LDRB     r1,[r11,r8]
        0x080015d8:    2900        .)      CMP      r1,#0
        0x080015da:    d1f4        ..      BNE      0x80015c6 ; _printf_core + 398
        0x080015dc:    e008        ..      B        0x80015f0 ; _printf_core + 440
        0x080015de:    f1080101    ....    ADD      r1,r8,#1
        0x080015e2:    4688        .F      MOV      r8,r1
        0x080015e4:    4281        .B      CMP      r1,r0
        0x080015e6:    dbfa        ..      BLT      0x80015de ; _printf_core + 422
        0x080015e8:    f81b1008    ....    LDRB     r1,[r11,r8]
        0x080015ec:    2900        .)      CMP      r1,#0
        0x080015ee:    d1f6        ..      BNE      0x80015de ; _printf_core + 422
        0x080015f0:    e9dd230f    ...#    LDRD     r2,r3,[sp,#0x3c]
        0x080015f4:    ebaa0008    ....    SUB      r0,r10,r8
        0x080015f8:    4681        .F      MOV      r9,r0
        0x080015fa:    4621        !F      MOV      r1,r4
        0x080015fc:    f000f936    ..6.    BL       _printf_pre_padding ; 0x800186c
        0x08001600:    4430        0D      ADD      r0,r0,r6
        0x08001602:    eb000608    ....    ADD      r6,r0,r8
        0x08001606:    e004        ..      B        0x8001612 ; _printf_core + 474
        0x08001608:    e9dd120f    ....    LDRD     r1,r2,[sp,#0x3c]
        0x0800160c:    f81b0b01    ....    LDRB     r0,[r11],#1
        0x08001610:    4790        .G      BLX      r2
        0x08001612:    f1b80801    ....    SUBS     r8,r8,#1
        0x08001616:    d2f7        ..      BCS      0x8001608 ; _printf_core + 464
        0x08001618:    4621        !F      MOV      r1,r4
        0x0800161a:    4648        HF      MOV      r0,r9
        0x0800161c:    e0f7        ..      B        0x800180e ; _printf_core + 982
        0x0800161e:    210a        .!      MOVS     r1,#0xa
        0x08001620:    f3c45302    ...S    UBFX     r3,r4,#20,#3
        0x08001624:    f04f0b00    O...    MOV      r11,#0
        0x08001628:    9108        ..      STR      r1,[sp,#0x20]
        0x0800162a:    2b02        .+      CMP      r3,#2
        0x0800162c:    d004        ..      BEQ      0x8001638 ; _printf_core + 512
        0x0800162e:    cf01        ..      LDM      r7!,{r0}
        0x08001630:    17c1        ..      ASRS     r1,r0,#31
        0x08001632:    2b03        .+      CMP      r3,#3
        0x08001634:    d009        ..      BEQ      0x800164a ; _printf_core + 530
        0x08001636:    e00a        ..      B        0x800164e ; _printf_core + 534
        0x08001638:    1dff        ..      ADDS     r7,r7,#7
        0x0800163a:    f0270707    '...    BIC      r7,r7,#7
        0x0800163e:    e8f70102    ....    LDRD     r0,r1,[r7],#8
        0x08001642:    e008        ..      B        0x8001656 ; _printf_core + 542
        0x08001644:    e032        2.      B        0x80016ac ; _printf_core + 628
        0x08001646:    e01f        ..      B        0x8001688 ; _printf_core + 592
        0x08001648:    e020         .      B        0x800168c ; _printf_core + 596
        0x0800164a:    b200        ..      SXTH     r0,r0
        0x0800164c:    17c1        ..      ASRS     r1,r0,#31
        0x0800164e:    2b04        .+      CMP      r3,#4
        0x08001650:    d101        ..      BNE      0x8001656 ; _printf_core + 542
        0x08001652:    b240        @.      SXTB     r0,r0
        0x08001654:    17c1        ..      ASRS     r1,r0,#31
        0x08001656:    1e03        ..      SUBS     r3,r0,#0
        0x08001658:    f1710300    q...    SBCS     r3,r1,#0
        0x0800165c:    da07        ..      BGE      0x800166e ; _printf_core + 566
        0x0800165e:    f04f0c00    O...    MOV      r12,#0
        0x08001662:    ebd0000c    ....    RSBS     r0,r0,r12
        0x08001666:    eb6c0101    l...    SBC      r1,r12,r1
        0x0800166a:    232d        -#      MOVS     r3,#0x2d
        0x0800166c:    e002        ..      B        0x8001674 ; _printf_core + 572
        0x0800166e:    0523        #.      LSLS     r3,r4,#20
        0x08001670:    d504        ..      BPL      0x800167c ; _printf_core + 580
        0x08001672:    232b        +#      MOVS     r3,#0x2b
        0x08001674:    f88d3024    ..$0    STRB     r3,[sp,#0x24]
        0x08001678:    2301        .#      MOVS     r3,#1
        0x0800167a:    e003        ..      B        0x8001684 ; _printf_core + 588
        0x0800167c:    07e3        ..      LSLS     r3,r4,#31
        0x0800167e:    d001        ..      BEQ      0x8001684 ; _printf_core + 588
        0x08001680:    2320         #      MOVS     r3,#0x20
        0x08001682:    e7f7        ..      B        0x8001674 ; _printf_core + 572
        0x08001684:    4698        .F      MOV      r8,r3
        0x08001686:    e058        X.      B        0x800173a ; _printf_core + 770
        0x08001688:    210a        .!      MOVS     r1,#0xa
        0x0800168a:    e010        ..      B        0x80016ae ; _printf_core + 630
        0x0800168c:    2110        .!      MOVS     r1,#0x10
        0x0800168e:    e00e        ..      B        0x80016ae ; _printf_core + 630
        0x08001690:    2010        .       MOVS     r0,#0x10
        0x08001692:    f04f0b00    O...    MOV      r11,#0
        0x08001696:    9008        ..      STR      r0,[sp,#0x20]
        0x08001698:    e00c        ..      B        0x80016b4 ; _printf_core + 636
        0x0800169a:    2110        .!      MOVS     r1,#0x10
        0x0800169c:    f04f0b00    O...    MOV      r11,#0
        0x080016a0:    f0440404    D...    ORR      r4,r4,#4
        0x080016a4:    f04f0908    O...    MOV      r9,#8
        0x080016a8:    9108        ..      STR      r1,[sp,#0x20]
        0x080016aa:    e003        ..      B        0x80016b4 ; _printf_core + 636
        0x080016ac:    2108        .!      MOVS     r1,#8
        0x080016ae:    f04f0b00    O...    MOV      r11,#0
        0x080016b2:    9108        ..      STR      r1,[sp,#0x20]
        0x080016b4:    f3c45302    ...S    UBFX     r3,r4,#20,#3
        0x080016b8:    2b02        .+      CMP      r3,#2
        0x080016ba:    d004        ..      BEQ      0x80016c6 ; _printf_core + 654
        0x080016bc:    cf01        ..      LDM      r7!,{r0}
        0x080016be:    2100        .!      MOVS     r1,#0
        0x080016c0:    2b03        .+      CMP      r3,#3
        0x080016c2:    d006        ..      BEQ      0x80016d2 ; _printf_core + 666
        0x080016c4:    e006        ..      B        0x80016d4 ; _printf_core + 668
        0x080016c6:    1dff        ..      ADDS     r7,r7,#7
        0x080016c8:    f0270707    '...    BIC      r7,r7,#7
        0x080016cc:    e8f70102    ....    LDRD     r0,r1,[r7],#8
        0x080016d0:    e003        ..      B        0x80016da ; _printf_core + 674
        0x080016d2:    b280        ..      UXTH     r0,r0
        0x080016d4:    2b04        .+      CMP      r3,#4
        0x080016d6:    d100        ..      BNE      0x80016da ; _printf_core + 674
        0x080016d8:    b2c0        ..      UXTB     r0,r0
        0x080016da:    f04f0800    O...    MOV      r8,#0
        0x080016de:    0723        #.      LSLS     r3,r4,#28
        0x080016e0:    d52b        +.      BPL      0x800173a ; _printf_core + 770
        0x080016e2:    2a70        p*      CMP      r2,#0x70
        0x080016e4:    d007        ..      BEQ      0x80016f6 ; _printf_core + 702
        0x080016e6:    f8ddc020    .. .    LDR      r12,[sp,#0x20]
        0x080016ea:    f08c0c10    ....    EOR      r12,r12,#0x10
        0x080016ee:    ea5c0c0b    \...    ORRS     r12,r12,r11
        0x080016f2:    d005        ..      BEQ      0x8001700 ; _printf_core + 712
        0x080016f4:    e00e        ..      B        0x8001714 ; _printf_core + 732
        0x080016f6:    2340        @#      MOVS     r3,#0x40
        0x080016f8:    f88d3024    ..$0    STRB     r3,[sp,#0x24]
        0x080016fc:    2301        .#      MOVS     r3,#1
        0x080016fe:    e008        ..      B        0x8001712 ; _printf_core + 730
        0x08001700:    ea500301    P...    ORRS     r3,r0,r1
        0x08001704:    d006        ..      BEQ      0x8001714 ; _printf_core + 732
        0x08001706:    2330        0#      MOVS     r3,#0x30
        0x08001708:    f88d3024    ..$0    STRB     r3,[sp,#0x24]
        0x0800170c:    f88d2025    ..%     STRB     r2,[sp,#0x25]
        0x08001710:    2302        .#      MOVS     r3,#2
        0x08001712:    4698        .F      MOV      r8,r3
        0x08001714:    f8ddc020    .. .    LDR      r12,[sp,#0x20]
        0x08001718:    f08c0c08    ....    EOR      r12,r12,#8
        0x0800171c:    ea5c0c0b    \...    ORRS     r12,r12,r11
        0x08001720:    d10b        ..      BNE      0x800173a ; _printf_core + 770
        0x08001722:    ea500301    P...    ORRS     r3,r0,r1
        0x08001726:    d101        ..      BNE      0x800172c ; _printf_core + 756
        0x08001728:    0763        c.      LSLS     r3,r4,#29
        0x0800172a:    d506        ..      BPL      0x800173a ; _printf_core + 770
        0x0800172c:    2330        0#      MOVS     r3,#0x30
        0x0800172e:    f88d3024    ..$0    STRB     r3,[sp,#0x24]
        0x08001732:    f04f0801    O...    MOV      r8,#1
        0x08001736:    f1a90901    ....    SUB      r9,r9,#1
        0x0800173a:    2a58        X*      CMP      r2,#0x58
        0x0800173c:    d004        ..      BEQ      0x8001748 ; _printf_core + 784
        0x0800173e:    a238        8.      ADR      r2,{pc}+0xe2 ; 0x8001820
        0x08001740:    920b        ..      STR      r2,[sp,#0x2c]
        0x08001742:    aa08        ..      ADD      r2,sp,#0x20
        0x08001744:    920a        ..      STR      r2,[sp,#0x28]
        0x08001746:    e00b        ..      B        0x8001760 ; _printf_core + 808
        0x08001748:    a23a        :.      ADR      r2,{pc}+0xec ; 0x8001834
        0x0800174a:    e7f9        ..      B        0x8001740 ; _printf_core + 776
        0x0800174c:    465b        [F      MOV      r3,r11
        0x0800174e:    9a08        ..      LDR      r2,[sp,#0x20]
        0x08001750:    f7fefd0a    ....    BL       __aeabi_uldivmod ; 0x8000168
        0x08001754:    9b0b        ..      LDR      r3,[sp,#0x2c]
        0x08001756:    5c9b        .\      LDRB     r3,[r3,r2]
        0x08001758:    9a0a        ..      LDR      r2,[sp,#0x28]
        0x0800175a:    1e52        R.      SUBS     r2,r2,#1
        0x0800175c:    920a        ..      STR      r2,[sp,#0x28]
        0x0800175e:    7013        .p      STRB     r3,[r2,#0]
        0x08001760:    ea500201    P...    ORRS     r2,r0,r1
        0x08001764:    d1f2        ..      BNE      0x800174c ; _printf_core + 788
        0x08001766:    980a        ..      LDR      r0,[sp,#0x28]
        0x08001768:    ebad0000    ....    SUB      r0,sp,r0
        0x0800176c:    f1000b20    .. .    ADD      r11,r0,#0x20
        0x08001770:    0760        `.      LSLS     r0,r4,#29
        0x08001772:    d502        ..      BPL      0x800177a ; _printf_core + 834
        0x08001774:    f4243480    $..4    BIC      r4,r4,#0x10000
        0x08001778:    e001        ..      B        0x800177e ; _printf_core + 838
        0x0800177a:    f04f0901    O...    MOV      r9,#1
        0x0800177e:    45d9        .E      CMP      r9,r11
        0x08001780:    dd02        ..      BLE      0x8001788 ; _printf_core + 848
        0x08001782:    eba9000b    ....    SUB      r0,r9,r11
        0x08001786:    e000        ..      B        0x800178a ; _printf_core + 850
        0x08001788:    2000        .       MOVS     r0,#0
        0x0800178a:    eb00010b    ....    ADD      r1,r0,r11
        0x0800178e:    4441        AD      ADD      r1,r1,r8
        0x08001790:    9008        ..      STR      r0,[sp,#0x20]
        0x08001792:    ebaa0a01    ....    SUB      r10,r10,r1
        0x08001796:    03e0        ..      LSLS     r0,r4,#15
        0x08001798:    d406        ..      BMI      0x80017a8 ; _printf_core + 880
        0x0800179a:    e9dd230f    ...#    LDRD     r2,r3,[sp,#0x3c]
        0x0800179e:    4621        !F      MOV      r1,r4
        0x080017a0:    4650        PF      MOV      r0,r10
        0x080017a2:    f000f863    ..c.    BL       _printf_pre_padding ; 0x800186c
        0x080017a6:    4406        .D      ADD      r6,r6,r0
        0x080017a8:    f04f0900    O...    MOV      r9,#0
        0x080017ac:    e008        ..      B        0x80017c0 ; _printf_core + 904
        0x080017ae:    a909        ..      ADD      r1,sp,#0x24
        0x080017b0:    f8110009    ....    LDRB     r0,[r1,r9]
        0x080017b4:    e9dd120f    ....    LDRD     r1,r2,[sp,#0x3c]
        0x080017b8:    4790        .G      BLX      r2
        0x080017ba:    f1090901    ....    ADD      r9,r9,#1
        0x080017be:    1c76        v.      ADDS     r6,r6,#1
        0x080017c0:    45c1        .E      CMP      r9,r8
        0x080017c2:    dbf4        ..      BLT      0x80017ae ; _printf_core + 886
        0x080017c4:    03e0        ..      LSLS     r0,r4,#15
        0x080017c6:    d50c        ..      BPL      0x80017e2 ; _printf_core + 938
        0x080017c8:    e9dd230f    ...#    LDRD     r2,r3,[sp,#0x3c]
        0x080017cc:    4621        !F      MOV      r1,r4
        0x080017ce:    4650        PF      MOV      r0,r10
        0x080017d0:    f000f84c    ..L.    BL       _printf_pre_padding ; 0x800186c
        0x080017d4:    4406        .D      ADD      r6,r6,r0
        0x080017d6:    e004        ..      B        0x80017e2 ; _printf_core + 938
        0x080017d8:    e9dd120f    ....    LDRD     r1,r2,[sp,#0x3c]
        0x080017dc:    2030        0       MOVS     r0,#0x30
        0x080017de:    4790        .G      BLX      r2
        0x080017e0:    1c76        v.      ADDS     r6,r6,#1
        0x080017e2:    9908        ..      LDR      r1,[sp,#0x20]
        0x080017e4:    1e48        H.      SUBS     r0,r1,#1
        0x080017e6:    9008        ..      STR      r0,[sp,#0x20]
        0x080017e8:    2900        .)      CMP      r1,#0
        0x080017ea:    dcf5        ..      BGT      0x80017d8 ; _printf_core + 928
        0x080017ec:    e008        ..      B        0x8001800 ; _printf_core + 968
        0x080017ee:    980a        ..      LDR      r0,[sp,#0x28]
        0x080017f0:    990a        ..      LDR      r1,[sp,#0x28]
        0x080017f2:    7800        .x      LDRB     r0,[r0,#0]
        0x080017f4:    1c49        I.      ADDS     r1,r1,#1
        0x080017f6:    910a        ..      STR      r1,[sp,#0x28]
        0x080017f8:    e9dd120f    ....    LDRD     r1,r2,[sp,#0x3c]
        0x080017fc:    4790        .G      BLX      r2
        0x080017fe:    1c76        v.      ADDS     r6,r6,#1
        0x08001800:    f1bb0100    ....    SUBS     r1,r11,#0
        0x08001804:    f1ab0b01    ....    SUB      r11,r11,#1
        0x08001808:    dcf1        ..      BGT      0x80017ee ; _printf_core + 950
        0x0800180a:    4621        !F      MOV      r1,r4
        0x0800180c:    4650        PF      MOV      r0,r10
        0x0800180e:    e9dd230f    ...#    LDRD     r2,r3,[sp,#0x3c]
        0x08001812:    f000f819    ....    BL       _printf_post_padding ; 0x8001848
        0x08001816:    4406        .D      ADD      r6,r6,r0
        0x08001818:    1c6d        m.      ADDS     r5,r5,#1
        0x0800181a:    e61b        ..      B        0x8001454 ; _printf_core + 28
    $d
        0x0800181c:    00012809    .(..    DCD    75785
        0x08001820:    33323130    0123    DCD    858927408
        0x08001824:    37363534    4567    DCD    926299444
        0x08001828:    62613938    89ab    DCD    1650538808
        0x0800182c:    66656463    cdef    DCD    1717920867
        0x08001830:    00000000    ....    DCD    0
        0x08001834:    33323130    0123    DCD    858927408
        0x08001838:    37363534    4567    DCD    926299444
        0x0800183c:    42413938    89AB    DCD    1111570744
        0x08001840:    46454443    CDEF    DCD    1178944579
        0x08001844:    00000000    ....    DCD    0
    $t
    i._printf_post_padding
    _printf_post_padding
        0x08001848:    e92d41f0    -..A    PUSH     {r4-r8,lr}
        0x0800184c:    4604        .F      MOV      r4,r0
        0x0800184e:    2500        .%      MOVS     r5,#0
        0x08001850:    461e        .F      MOV      r6,r3
        0x08001852:    4617        .F      MOV      r7,r2
        0x08001854:    0488        ..      LSLS     r0,r1,#18
        0x08001856:    d404        ..      BMI      0x8001862 ; _printf_post_padding + 26
        0x08001858:    e005        ..      B        0x8001866 ; _printf_post_padding + 30
        0x0800185a:    4639        9F      MOV      r1,r7
        0x0800185c:    2020                MOVS     r0,#0x20
        0x0800185e:    47b0        .G      BLX      r6
        0x08001860:    1c6d        m.      ADDS     r5,r5,#1
        0x08001862:    1e64        d.      SUBS     r4,r4,#1
        0x08001864:    d5f9        ..      BPL      0x800185a ; _printf_post_padding + 18
        0x08001866:    4628        (F      MOV      r0,r5
        0x08001868:    e8bd81f0    ....    POP      {r4-r8,pc}
    i._printf_pre_padding
    _printf_pre_padding
        0x0800186c:    e92d41f0    -..A    PUSH     {r4-r8,lr}
        0x08001870:    4604        .F      MOV      r4,r0
        0x08001872:    2500        .%      MOVS     r5,#0
        0x08001874:    461e        .F      MOV      r6,r3
        0x08001876:    4690        .F      MOV      r8,r2
        0x08001878:    03c8        ..      LSLS     r0,r1,#15
        0x0800187a:    d501        ..      BPL      0x8001880 ; _printf_pre_padding + 20
        0x0800187c:    2730        0'      MOVS     r7,#0x30
        0x0800187e:    e000        ..      B        0x8001882 ; _printf_pre_padding + 22
        0x08001880:    2720         '      MOVS     r7,#0x20
        0x08001882:    0488        ..      LSLS     r0,r1,#18
        0x08001884:    d504        ..      BPL      0x8001890 ; _printf_pre_padding + 36
        0x08001886:    e005        ..      B        0x8001894 ; _printf_pre_padding + 40
        0x08001888:    4641        AF      MOV      r1,r8
        0x0800188a:    4638        8F      MOV      r0,r7
        0x0800188c:    47b0        .G      BLX      r6
        0x0800188e:    1c6d        m.      ADDS     r5,r5,#1
        0x08001890:    1e64        d.      SUBS     r4,r4,#1
        0x08001892:    d5f9        ..      BPL      0x8001888 ; _printf_pre_padding + 28
        0x08001894:    4628        (F      MOV      r0,r5
        0x08001896:    e8bd81f0    ....    POP      {r4-r8,pc}
    i.abort
    abort
        0x0800189a:    bf00        ..      NOP      
        0x0800189c:    e7fe        ..      B        0x800189c ; abort + 2
    i.adc_calibration_enable
    adc_calibration_enable
        0x0800189e:    6881        .h      LDR      r1,[r0,#8]
        0x080018a0:    f0410108    A...    ORR      r1,r1,#8
        0x080018a4:    6081        .`      STR      r1,[r0,#8]
        0x080018a6:    bf00        ..      NOP      
        0x080018a8:    6881        .h      LDR      r1,[r0,#8]
        0x080018aa:    f0010108    ....    AND      r1,r1,#8
        0x080018ae:    2900        .)      CMP      r1,#0
        0x080018b0:    d1fa        ..      BNE      0x80018a8 ; adc_calibration_enable + 10
        0x080018b2:    6881        .h      LDR      r1,[r0,#8]
        0x080018b4:    f0410104    A...    ORR      r1,r1,#4
        0x080018b8:    6081        .`      STR      r1,[r0,#8]
        0x080018ba:    bf00        ..      NOP      
        0x080018bc:    6881        .h      LDR      r1,[r0,#8]
        0x080018be:    f0010104    ....    AND      r1,r1,#4
        0x080018c2:    2900        .)      CMP      r1,#0
        0x080018c4:    d1fa        ..      BNE      0x80018bc ; adc_calibration_enable + 30
        0x080018c6:    4770        pG      BX       lr
    i.adc_channel_length_config
    adc_channel_length_config
        0x080018c8:    b530        0.      PUSH     {r4,r5,lr}
        0x080018ca:    2901        .)      CMP      r1,#1
        0x080018cc:    d002        ..      BEQ      0x80018d4 ; adc_channel_length_config + 12
        0x080018ce:    2902        .)      CMP      r1,#2
        0x080018d0:    d11a        ..      BNE      0x8001908 ; adc_channel_length_config + 64
        0x080018d2:    e00c        ..      B        0x80018ee ; adc_channel_length_config + 38
        0x080018d4:    6ac3        .j      LDR      r3,[r0,#0x2c]
        0x080018d6:    f4230370    #.p.    BIC      r3,r3,#0xf00000
        0x080018da:    62c3        .b      STR      r3,[r0,#0x2c]
        0x080018dc:    6ac3        .j      LDR      r3,[r0,#0x2c]
        0x080018de:    1e54        T.      SUBS     r4,r2,#1
        0x080018e0:    f44f0570    O.p.    MOV      r5,#0xf00000
        0x080018e4:    ea055404    ...T    AND      r4,r5,r4,LSL #20
        0x080018e8:    4323        #C      ORRS     r3,r3,r4
        0x080018ea:    62c3        .b      STR      r3,[r0,#0x2c]
        0x080018ec:    e00d        ..      B        0x800190a ; adc_channel_length_config + 66
        0x080018ee:    6b83        .k      LDR      r3,[r0,#0x38]
        0x080018f0:    f4231340    #.@.    BIC      r3,r3,#0x300000
        0x080018f4:    6383        .c      STR      r3,[r0,#0x38]
        0x080018f6:    6b83        .k      LDR      r3,[r0,#0x38]
        0x080018f8:    1e54        T.      SUBS     r4,r2,#1
        0x080018fa:    f44f1540    O.@.    MOV      r5,#0x300000
        0x080018fe:    ea055404    ...T    AND      r4,r5,r4,LSL #20
        0x08001902:    4323        #C      ORRS     r3,r3,r4
        0x08001904:    6383        .c      STR      r3,[r0,#0x38]
        0x08001906:    e000        ..      B        0x800190a ; adc_channel_length_config + 66
        0x08001908:    bf00        ..      NOP      
        0x0800190a:    bf00        ..      NOP      
        0x0800190c:    bd30        0.      POP      {r4,r5,pc}
    i.adc_data_alignment_config
    adc_data_alignment_config
        0x0800190e:    b121        !.      CBZ      r1,0x800191a ; adc_data_alignment_config + 12
        0x08001910:    6882        .h      LDR      r2,[r0,#8]
        0x08001912:    f4426200    B..b    ORR      r2,r2,#0x800
        0x08001916:    6082        .`      STR      r2,[r0,#8]
        0x08001918:    e003        ..      B        0x8001922 ; adc_data_alignment_config + 20
        0x0800191a:    6882        .h      LDR      r2,[r0,#8]
        0x0800191c:    f4226200    "..b    BIC      r2,r2,#0x800
        0x08001920:    6082        .`      STR      r2,[r0,#8]
        0x08001922:    4770        pG      BX       lr
    i.adc_enable
    adc_enable
        0x08001924:    6881        .h      LDR      r1,[r0,#8]
        0x08001926:    f0010101    ....    AND      r1,r1,#1
        0x0800192a:    b919        ..      CBNZ     r1,0x8001934 ; adc_enable + 16
        0x0800192c:    6881        .h      LDR      r1,[r0,#8]
        0x0800192e:    f0410101    A...    ORR      r1,r1,#1
        0x08001932:    6081        .`      STR      r1,[r0,#8]
        0x08001934:    4770        pG      BX       lr
    i.adc_external_trigger_config
    adc_external_trigger_config
        0x08001936:    b172        r.      CBZ      r2,0x8001956 ; adc_external_trigger_config + 32
        0x08001938:    f0010301    ....    AND      r3,r1,#1
        0x0800193c:    b11b        ..      CBZ      r3,0x8001946 ; adc_external_trigger_config + 16
        0x0800193e:    6883        .h      LDR      r3,[r0,#8]
        0x08001940:    f4431380    C...    ORR      r3,r3,#0x100000
        0x08001944:    6083        .`      STR      r3,[r0,#8]
        0x08001946:    f0010302    ....    AND      r3,r1,#2
        0x0800194a:    b193        ..      CBZ      r3,0x8001972 ; adc_external_trigger_config + 60
        0x0800194c:    6883        .h      LDR      r3,[r0,#8]
        0x0800194e:    f4434300    C..C    ORR      r3,r3,#0x8000
        0x08001952:    6083        .`      STR      r3,[r0,#8]
        0x08001954:    e00d        ..      B        0x8001972 ; adc_external_trigger_config + 60
        0x08001956:    f0010301    ....    AND      r3,r1,#1
        0x0800195a:    b11b        ..      CBZ      r3,0x8001964 ; adc_external_trigger_config + 46
        0x0800195c:    6883        .h      LDR      r3,[r0,#8]
        0x0800195e:    f4231380    #...    BIC      r3,r3,#0x100000
        0x08001962:    6083        .`      STR      r3,[r0,#8]
        0x08001964:    f0010302    ....    AND      r3,r1,#2
        0x08001968:    b11b        ..      CBZ      r3,0x8001972 ; adc_external_trigger_config + 60
        0x0800196a:    6883        .h      LDR      r3,[r0,#8]
        0x0800196c:    f4234300    #..C    BIC      r3,r3,#0x8000
        0x08001970:    6083        .`      STR      r3,[r0,#8]
        0x08001972:    4770        pG      BX       lr
    i.adc_external_trigger_source_config
    adc_external_trigger_source_config
        0x08001974:    2901        .)      CMP      r1,#1
        0x08001976:    d002        ..      BEQ      0x800197e ; adc_external_trigger_source_config + 10
        0x08001978:    2902        .)      CMP      r1,#2
        0x0800197a:    d110        ..      BNE      0x800199e ; adc_external_trigger_source_config + 42
        0x0800197c:    e007        ..      B        0x800198e ; adc_external_trigger_source_config + 26
        0x0800197e:    6883        .h      LDR      r3,[r0,#8]
        0x08001980:    f4232360    #.`#    BIC      r3,r3,#0xe0000
        0x08001984:    6083        .`      STR      r3,[r0,#8]
        0x08001986:    6883        .h      LDR      r3,[r0,#8]
        0x08001988:    4313        .C      ORRS     r3,r3,r2
        0x0800198a:    6083        .`      STR      r3,[r0,#8]
        0x0800198c:    e008        ..      B        0x80019a0 ; adc_external_trigger_source_config + 44
        0x0800198e:    6883        .h      LDR      r3,[r0,#8]
        0x08001990:    f42343e0    #..C    BIC      r3,r3,#0x7000
        0x08001994:    6083        .`      STR      r3,[r0,#8]
        0x08001996:    6883        .h      LDR      r3,[r0,#8]
        0x08001998:    4313        .C      ORRS     r3,r3,r2
        0x0800199a:    6083        .`      STR      r3,[r0,#8]
        0x0800199c:    e000        ..      B        0x80019a0 ; adc_external_trigger_source_config + 44
        0x0800199e:    bf00        ..      NOP      
        0x080019a0:    bf00        ..      NOP      
        0x080019a2:    4770        pG      BX       lr
    i.adc_flag_get
    adc_flag_get
        0x080019a4:    4602        .F      MOV      r2,r0
        0x080019a6:    2000        .       MOVS     r0,#0
        0x080019a8:    6813        .h      LDR      r3,[r2,#0]
        0x080019aa:    400b        .@      ANDS     r3,r3,r1
        0x080019ac:    b103        ..      CBZ      r3,0x80019b0 ; adc_flag_get + 12
        0x080019ae:    2001        .       MOVS     r0,#1
        0x080019b0:    4770        pG      BX       lr
        0x080019b2:    0000        ..      MOVS     r0,r0
    i.adc_mode_config
    adc_mode_config
        0x080019b4:    4905        .I      LDR      r1,[pc,#20] ; [0x80019cc] = 0x40012404
        0x080019b6:    6809        .h      LDR      r1,[r1,#0]
        0x080019b8:    f4212170    !.p!    BIC      r1,r1,#0xf0000
        0x080019bc:    4a03        .J      LDR      r2,[pc,#12] ; [0x80019cc] = 0x40012404
        0x080019be:    6011        .`      STR      r1,[r2,#0]
        0x080019c0:    4611        .F      MOV      r1,r2
        0x080019c2:    6809        .h      LDR      r1,[r1,#0]
        0x080019c4:    4301        .C      ORRS     r1,r1,r0
        0x080019c6:    6011        .`      STR      r1,[r2,#0]
        0x080019c8:    4770        pG      BX       lr
    $d
        0x080019ca:    0000        ..      DCW    0
        0x080019cc:    40012404    .$.@    DCD    1073816580
    $t
    i.adc_oversample_mode_config
    adc_oversample_mode_config
        0x080019d0:    b530        0.      PUSH     {r4,r5,lr}
        0x080019d2:    f5b17f00    ....    CMP      r1,#0x200
        0x080019d6:    d106        ..      BNE      0x80019e6 ; adc_oversample_mode_config + 22
        0x080019d8:    f8d04080    ...@    LDR      r4,[r0,#0x80]
        0x080019dc:    f4447400    D..t    ORR      r4,r4,#0x200
        0x080019e0:    f8c04080    ...@    STR      r4,[r0,#0x80]
        0x080019e4:    e005        ..      B        0x80019f2 ; adc_oversample_mode_config + 34
        0x080019e6:    f8d04080    ...@    LDR      r4,[r0,#0x80]
        0x080019ea:    f4247400    $..t    BIC      r4,r4,#0x200
        0x080019ee:    f8c04080    ...@    STR      r4,[r0,#0x80]
        0x080019f2:    f8504f80    P..O    LDR      r4,[r0,#0x80]!
        0x080019f6:    f42474fe    $..t    BIC      r4,r4,#0x1fc
        0x080019fa:    6004        .`      STR      r4,[r0,#0]
        0x080019fc:    6804        .h      LDR      r4,[r0,#0]
        0x080019fe:    ea420503    B...    ORR      r5,r2,r3
        0x08001a02:    432c        ,C      ORRS     r4,r4,r5
        0x08001a04:    f8404980    @..I    STR      r4,[r0],#-0x80
        0x08001a08:    bd30        0.      POP      {r4,r5,pc}
    i.adc_oversample_mode_enable
    adc_oversample_mode_enable
        0x08001a0a:    f8d01080    ....    LDR      r1,[r0,#0x80]
        0x08001a0e:    f0410101    A...    ORR      r1,r1,#1
        0x08001a12:    f8c01080    ....    STR      r1,[r0,#0x80]
        0x08001a16:    4770        pG      BX       lr
    i.adc_regular_channel_config
    adc_regular_channel_config
        0x08001a18:    b5f0        ..      PUSH     {r4-r7,lr}
        0x08001a1a:    461d        .F      MOV      r5,r3
        0x08001a1c:    2906        .)      CMP      r1,#6
        0x08001a1e:    d20c        ..      BCS      0x8001a3a ; adc_regular_channel_config + 34
        0x08001a20:    6b43        Ck      LDR      r3,[r0,#0x34]
        0x08001a22:    eb010781    ....    ADD      r7,r1,r1,LSL #2
        0x08001a26:    261f        .&      MOVS     r6,#0x1f
        0x08001a28:    40be        .@      LSLS     r6,r6,r7
        0x08001a2a:    43b3        .C      BICS     r3,r3,r6
        0x08001a2c:    eb010681    ....    ADD      r6,r1,r1,LSL #2
        0x08001a30:    fa02f606    ....    LSL      r6,r2,r6
        0x08001a34:    4333        3C      ORRS     r3,r3,r6
        0x08001a36:    6343        Cc      STR      r3,[r0,#0x34]
        0x08001a38:    e022        ".      B        0x8001a80 ; adc_regular_channel_config + 104
        0x08001a3a:    290c        .)      CMP      r1,#0xc
        0x08001a3c:    d20e        ..      BCS      0x8001a5c ; adc_regular_channel_config + 68
        0x08001a3e:    6b03        .k      LDR      r3,[r0,#0x30]
        0x08001a40:    1f8e        ..      SUBS     r6,r1,#6
        0x08001a42:    eb060786    ....    ADD      r7,r6,r6,LSL #2
        0x08001a46:    261f        .&      MOVS     r6,#0x1f
        0x08001a48:    40be        .@      LSLS     r6,r6,r7
        0x08001a4a:    43b3        .C      BICS     r3,r3,r6
        0x08001a4c:    1f8e        ..      SUBS     r6,r1,#6
        0x08001a4e:    eb060686    ....    ADD      r6,r6,r6,LSL #2
        0x08001a52:    fa02f606    ....    LSL      r6,r2,r6
        0x08001a56:    4333        3C      ORRS     r3,r3,r6
        0x08001a58:    6303        .c      STR      r3,[r0,#0x30]
        0x08001a5a:    e011        ..      B        0x8001a80 ; adc_regular_channel_config + 104
        0x08001a5c:    2910        .)      CMP      r1,#0x10
        0x08001a5e:    d20f        ..      BCS      0x8001a80 ; adc_regular_channel_config + 104
        0x08001a60:    6ac3        .j      LDR      r3,[r0,#0x2c]
        0x08001a62:    f1a1060c    ....    SUB      r6,r1,#0xc
        0x08001a66:    eb060786    ....    ADD      r7,r6,r6,LSL #2
        0x08001a6a:    261f        .&      MOVS     r6,#0x1f
        0x08001a6c:    40be        .@      LSLS     r6,r6,r7
        0x08001a6e:    43b3        .C      BICS     r3,r3,r6
        0x08001a70:    f1a1060c    ....    SUB      r6,r1,#0xc
        0x08001a74:    eb060686    ....    ADD      r6,r6,r6,LSL #2
        0x08001a78:    fa02f606    ....    LSL      r6,r2,r6
        0x08001a7c:    4333        3C      ORRS     r3,r3,r6
        0x08001a7e:    62c3        .b      STR      r3,[r0,#0x2c]
        0x08001a80:    2a0a        .*      CMP      r2,#0xa
        0x08001a82:    d20c        ..      BCS      0x8001a9e ; adc_regular_channel_config + 134
        0x08001a84:    6904        .i      LDR      r4,[r0,#0x10]
        0x08001a86:    eb020742    ..B.    ADD      r7,r2,r2,LSL #1
        0x08001a8a:    2607        .&      MOVS     r6,#7
        0x08001a8c:    40be        .@      LSLS     r6,r6,r7
        0x08001a8e:    43b4        .C      BICS     r4,r4,r6
        0x08001a90:    eb020642    ..B.    ADD      r6,r2,r2,LSL #1
        0x08001a94:    fa05f606    ....    LSL      r6,r5,r6
        0x08001a98:    4334        4C      ORRS     r4,r4,r6
        0x08001a9a:    6104        .a      STR      r4,[r0,#0x10]
        0x08001a9c:    e011        ..      B        0x8001ac2 ; adc_regular_channel_config + 170
        0x08001a9e:    2a12        .*      CMP      r2,#0x12
        0x08001aa0:    d20f        ..      BCS      0x8001ac2 ; adc_regular_channel_config + 170
        0x08001aa2:    68c4        .h      LDR      r4,[r0,#0xc]
        0x08001aa4:    f1a2060a    ....    SUB      r6,r2,#0xa
        0x08001aa8:    eb060746    ..F.    ADD      r7,r6,r6,LSL #1
        0x08001aac:    2607        .&      MOVS     r6,#7
        0x08001aae:    40be        .@      LSLS     r6,r6,r7
        0x08001ab0:    43b4        .C      BICS     r4,r4,r6
        0x08001ab2:    f1a2060a    ....    SUB      r6,r2,#0xa
        0x08001ab6:    eb060646    ..F.    ADD      r6,r6,r6,LSL #1
        0x08001aba:    fa05f606    ....    LSL      r6,r5,r6
        0x08001abe:    4334        4C      ORRS     r4,r4,r6
        0x08001ac0:    60c4        .`      STR      r4,[r0,#0xc]
        0x08001ac2:    bdf0        ..      POP      {r4-r7,pc}
    i.adc_regular_data_read
    adc_regular_data_read
        0x08001ac4:    4601        .F      MOV      r1,r0
        0x08001ac6:    6cc8        .l      LDR      r0,[r1,#0x4c]
        0x08001ac8:    b280        ..      UXTH     r0,r0
        0x08001aca:    4770        pG      BX       lr
    i.adc_software_trigger_enable
    adc_software_trigger_enable
        0x08001acc:    f0010201    ....    AND      r2,r1,#1
        0x08001ad0:    b11a        ..      CBZ      r2,0x8001ada ; adc_software_trigger_enable + 14
        0x08001ad2:    6882        .h      LDR      r2,[r0,#8]
        0x08001ad4:    f4420280    B...    ORR      r2,r2,#0x400000
        0x08001ad8:    6082        .`      STR      r2,[r0,#8]
        0x08001ada:    f0010202    ....    AND      r2,r1,#2
        0x08001ade:    b11a        ..      CBZ      r2,0x8001ae8 ; adc_software_trigger_enable + 28
        0x08001ae0:    6882        .h      LDR      r2,[r0,#8]
        0x08001ae2:    f4421200    B...    ORR      r2,r2,#0x200000
        0x08001ae6:    6082        .`      STR      r2,[r0,#8]
        0x08001ae8:    4770        pG      BX       lr
    i.adc_special_function_config
    adc_special_function_config
        0x08001aea:    b1aa        ..      CBZ      r2,0x8001b18 ; adc_special_function_config + 46
        0x08001aec:    f4017380    ...s    AND      r3,r1,#0x100
        0x08001af0:    b11b        ..      CBZ      r3,0x8001afa ; adc_special_function_config + 16
        0x08001af2:    6843        Ch      LDR      r3,[r0,#4]
        0x08001af4:    f4437380    C..s    ORR      r3,r3,#0x100
        0x08001af8:    6043        C`      STR      r3,[r0,#4]
        0x08001afa:    f4016380    ...c    AND      r3,r1,#0x400
        0x08001afe:    b11b        ..      CBZ      r3,0x8001b08 ; adc_special_function_config + 30
        0x08001b00:    6843        Ch      LDR      r3,[r0,#4]
        0x08001b02:    f4436380    C..c    ORR      r3,r3,#0x400
        0x08001b06:    6043        C`      STR      r3,[r0,#4]
        0x08001b08:    f0010302    ....    AND      r3,r1,#2
        0x08001b0c:    b1cb        ..      CBZ      r3,0x8001b42 ; adc_special_function_config + 88
        0x08001b0e:    6883        .h      LDR      r3,[r0,#8]
        0x08001b10:    f0430302    C...    ORR      r3,r3,#2
        0x08001b14:    6083        .`      STR      r3,[r0,#8]
        0x08001b16:    e014        ..      B        0x8001b42 ; adc_special_function_config + 88
        0x08001b18:    f4017380    ...s    AND      r3,r1,#0x100
        0x08001b1c:    b11b        ..      CBZ      r3,0x8001b26 ; adc_special_function_config + 60
        0x08001b1e:    6843        Ch      LDR      r3,[r0,#4]
        0x08001b20:    f4237380    #..s    BIC      r3,r3,#0x100
        0x08001b24:    6043        C`      STR      r3,[r0,#4]
        0x08001b26:    f4016380    ...c    AND      r3,r1,#0x400
        0x08001b2a:    b11b        ..      CBZ      r3,0x8001b34 ; adc_special_function_config + 74
        0x08001b2c:    6843        Ch      LDR      r3,[r0,#4]
        0x08001b2e:    f4236380    #..c    BIC      r3,r3,#0x400
        0x08001b32:    6043        C`      STR      r3,[r0,#4]
        0x08001b34:    f0010302    ....    AND      r3,r1,#2
        0x08001b38:    b11b        ..      CBZ      r3,0x8001b42 ; adc_special_function_config + 88
        0x08001b3a:    6883        .h      LDR      r3,[r0,#8]
        0x08001b3c:    f0230302    #...    BIC      r3,r3,#2
        0x08001b40:    6083        .`      STR      r3,[r0,#8]
        0x08001b42:    4770        pG      BX       lr
    i.bkp_deinit
    bkp_deinit
        0x08001b44:    b510        ..      PUSH     {r4,lr}
        0x08001b46:    f000fc7d    ..}.    BL       rcu_bkp_reset_enable ; 0x8002444
        0x08001b4a:    f000fc71    ..q.    BL       rcu_bkp_reset_disable ; 0x8002430
        0x08001b4e:    bd10        ..      POP      {r4,pc}
    i.bkp_read_data
    bkp_read_data
        0x08001b50:    4601        .F      MOV      r1,r0
        0x08001b52:    2000        .       MOVS     r0,#0
        0x08001b54:    290b        .)      CMP      r1,#0xb
        0x08001b56:    db09        ..      BLT      0x8001b6c ; bkp_read_data + 28
        0x08001b58:    292a        *)      CMP      r1,#0x2a
        0x08001b5a:    dc07        ..      BGT      0x8001b6c ; bkp_read_data + 28
        0x08001b5c:    f1a1020b    ....    SUB      r2,r1,#0xb
        0x08001b60:    4b08        .K      LDR      r3,[pc,#32] ; [0x8001b84] = 0x40006000
        0x08001b62:    eb030282    ....    ADD      r2,r3,r2,LSL #2
        0x08001b66:    f8b20c40    ..@.    LDRH     r0,[r2,#0xc40]
        0x08001b6a:    e009        ..      B        0x8001b80 ; bkp_read_data + 48
        0x08001b6c:    2901        .)      CMP      r1,#1
        0x08001b6e:    db07        ..      BLT      0x8001b80 ; bkp_read_data + 48
        0x08001b70:    290a        .)      CMP      r1,#0xa
        0x08001b72:    dc05        ..      BGT      0x8001b80 ; bkp_read_data + 48
        0x08001b74:    1e4a        J.      SUBS     r2,r1,#1
        0x08001b76:    4b03        .K      LDR      r3,[pc,#12] ; [0x8001b84] = 0x40006000
        0x08001b78:    eb030282    ....    ADD      r2,r3,r2,LSL #2
        0x08001b7c:    f8b20c04    ....    LDRH     r0,[r2,#0xc04]
        0x08001b80:    4770        pG      BX       lr
    $d
        0x08001b82:    0000        ..      DCW    0
        0x08001b84:    40006000    .`.@    DCD    1073766400
    $t
    i.bkp_write_data
    bkp_write_data
        0x08001b88:    280b        .(      CMP      r0,#0xb
        0x08001b8a:    db09        ..      BLT      0x8001ba0 ; bkp_write_data + 24
        0x08001b8c:    282a        *(      CMP      r0,#0x2a
        0x08001b8e:    dc07        ..      BGT      0x8001ba0 ; bkp_write_data + 24
        0x08001b90:    f1a0020b    ....    SUB      r2,r0,#0xb
        0x08001b94:    4b08        .K      LDR      r3,[pc,#32] ; [0x8001bb8] = 0x40006000
        0x08001b96:    eb030282    ....    ADD      r2,r3,r2,LSL #2
        0x08001b9a:    f8a21c40    ..@.    STRH     r1,[r2,#0xc40]
        0x08001b9e:    e009        ..      B        0x8001bb4 ; bkp_write_data + 44
        0x08001ba0:    2801        .(      CMP      r0,#1
        0x08001ba2:    db07        ..      BLT      0x8001bb4 ; bkp_write_data + 44
        0x08001ba4:    280a        .(      CMP      r0,#0xa
        0x08001ba6:    dc05        ..      BGT      0x8001bb4 ; bkp_write_data + 44
        0x08001ba8:    1e42        B.      SUBS     r2,r0,#1
        0x08001baa:    4b03        .K      LDR      r3,[pc,#12] ; [0x8001bb8] = 0x40006000
        0x08001bac:    eb030282    ....    ADD      r2,r3,r2,LSL #2
        0x08001bb0:    f8a21c04    ....    STRH     r1,[r2,#0xc04]
        0x08001bb4:    4770        pG      BX       lr
    $d
        0x08001bb6:    0000        ..      DCW    0
        0x08001bb8:    40006000    .`.@    DCD    1073766400
    $t
    i.eMBEnable
    eMBEnable
        0x08001bbc:    b510        ..      PUSH     {r4,lr}
        0x08001bbe:    2400        .$      MOVS     r4,#0
        0x08001bc0:    4806        .H      LDR      r0,[pc,#24] ; [0x8001bdc] = 0x2000006a
        0x08001bc2:    7800        .x      LDRB     r0,[r0,#0]
        0x08001bc4:    2801        .(      CMP      r0,#1
        0x08001bc6:    d106        ..      BNE      0x8001bd6 ; eMBEnable + 26
        0x08001bc8:    4805        .H      LDR      r0,[pc,#20] ; [0x8001be0] = 0x20000070
        0x08001bca:    6800        .h      LDR      r0,[r0,#0]
        0x08001bcc:    4780        .G      BLX      r0
        0x08001bce:    2000        .       MOVS     r0,#0
        0x08001bd0:    4902        .I      LDR      r1,[pc,#8] ; [0x8001bdc] = 0x2000006a
        0x08001bd2:    7008        .p      STRB     r0,[r1,#0]
        0x08001bd4:    e000        ..      B        0x8001bd8 ; eMBEnable + 28
        0x08001bd6:    2406        .$      MOVS     r4,#6
        0x08001bd8:    4620         F      MOV      r0,r4
        0x08001bda:    bd10        ..      POP      {r4,pc}
    $d
        0x08001bdc:    2000006a    j..     DCD    536871018
        0x08001be0:    20000070    p..     DCD    536871024
    $t
    i.eMBFuncReadHoldingRegister
    eMBFuncReadHoldingRegister
        0x08001be4:    e92d47f0    -..G    PUSH     {r4-r10,lr}
        0x08001be8:    4605        .F      MOV      r5,r0
        0x08001bea:    460c        .F      MOV      r4,r1
        0x08001bec:    f04f0a00    O...    MOV      r10,#0
        0x08001bf0:    8820         .      LDRH     r0,[r4,#0]
        0x08001bf2:    2805        .(      CMP      r0,#5
        0x08001bf4:    d134        4.      BNE      0x8001c60 ; eMBFuncReadHoldingRegister + 124
        0x08001bf6:    7868        hx      LDRB     r0,[r5,#1]
        0x08001bf8:    ea4f2900    O..)    LSL      r9,r0,#8
        0x08001bfc:    78a8        .x      LDRB     r0,[r5,#2]
        0x08001bfe:    ea400909    @...    ORR      r9,r0,r9
        0x08001c02:    78e8        .x      LDRB     r0,[r5,#3]
        0x08001c04:    0206        ..      LSLS     r6,r0,#8
        0x08001c06:    7928        (y      LDRB     r0,[r5,#4]
        0x08001c08:    4306        .C      ORRS     r6,r6,r0
        0x08001c0a:    2e01        ..      CMP      r6,#1
        0x08001c0c:    db25        %.      BLT      0x8001c5a ; eMBFuncReadHoldingRegister + 118
        0x08001c0e:    2e7d        }.      CMP      r6,#0x7d
        0x08001c10:    dc23        #.      BGT      0x8001c5a ; eMBFuncReadHoldingRegister + 118
        0x08001c12:    462f        /F      MOV      r7,r5
        0x08001c14:    2000        .       MOVS     r0,#0
        0x08001c16:    8020         .      STRH     r0,[r4,#0]
        0x08001c18:    2003        .       MOVS     r0,#3
        0x08001c1a:    f8070b01    ....    STRB     r0,[r7],#1
        0x08001c1e:    8820         .      LDRH     r0,[r4,#0]
        0x08001c20:    1c40        @.      ADDS     r0,r0,#1
        0x08001c22:    8020         .      STRH     r0,[r4,#0]
        0x08001c24:    0670        p.      LSLS     r0,r6,#25
        0x08001c26:    0e00        ..      LSRS     r0,r0,#24
        0x08001c28:    f8070b01    ....    STRB     r0,[r7],#1
        0x08001c2c:    8820         .      LDRH     r0,[r4,#0]
        0x08001c2e:    1c40        @.      ADDS     r0,r0,#1
        0x08001c30:    8020         .      STRH     r0,[r4,#0]
        0x08001c32:    2300        .#      MOVS     r3,#0
        0x08001c34:    4632        2F      MOV      r2,r6
        0x08001c36:    4649        IF      MOV      r1,r9
        0x08001c38:    4638        8F      MOV      r0,r7
        0x08001c3a:    f000fa57    ..W.    BL       eMBRegHoldingCB ; 0x80020ec
        0x08001c3e:    4680        .F      MOV      r8,r0
        0x08001c40:    f1b80f00    ....    CMP      r8,#0
        0x08001c44:    d004        ..      BEQ      0x8001c50 ; eMBFuncReadHoldingRegister + 108
        0x08001c46:    4640        @F      MOV      r0,r8
        0x08001c48:    f000fb92    ....    BL       prveMBError2Exception ; 0x8002370
        0x08001c4c:    4682        .F      MOV      r10,r0
        0x08001c4e:    e009        ..      B        0x8001c64 ; eMBFuncReadHoldingRegister + 128
        0x08001c50:    8820         .      LDRH     r0,[r4,#0]
        0x08001c52:    eb000046    ..F.    ADD      r0,r0,r6,LSL #1
        0x08001c56:    8020         .      STRH     r0,[r4,#0]
        0x08001c58:    e004        ..      B        0x8001c64 ; eMBFuncReadHoldingRegister + 128
        0x08001c5a:    f04f0a03    O...    MOV      r10,#3
        0x08001c5e:    e001        ..      B        0x8001c64 ; eMBFuncReadHoldingRegister + 128
        0x08001c60:    f04f0a03    O...    MOV      r10,#3
        0x08001c64:    4650        PF      MOV      r0,r10
        0x08001c66:    e8bd87f0    ....    POP      {r4-r10,pc}
    i.eMBFuncWriteHoldingRegister
    eMBFuncWriteHoldingRegister
        0x08001c6a:    e92d41f0    -..A    PUSH     {r4-r8,lr}
        0x08001c6e:    4604        .F      MOV      r4,r0
        0x08001c70:    460e        .F      MOV      r6,r1
        0x08001c72:    f04f0800    O...    MOV      r8,#0
        0x08001c76:    8830        0.      LDRH     r0,[r6,#0]
        0x08001c78:    2805        .(      CMP      r0,#5
        0x08001c7a:    d110        ..      BNE      0x8001c9e ; eMBFuncWriteHoldingRegister + 52
        0x08001c7c:    7860        `x      LDRB     r0,[r4,#1]
        0x08001c7e:    0207        ..      LSLS     r7,r0,#8
        0x08001c80:    78a0        .x      LDRB     r0,[r4,#2]
        0x08001c82:    4307        .C      ORRS     r7,r7,r0
        0x08001c84:    2301        .#      MOVS     r3,#1
        0x08001c86:    461a        .F      MOV      r2,r3
        0x08001c88:    4639        9F      MOV      r1,r7
        0x08001c8a:    1ce0        ..      ADDS     r0,r4,#3
        0x08001c8c:    f000fa2e    ....    BL       eMBRegHoldingCB ; 0x80020ec
        0x08001c90:    4605        .F      MOV      r5,r0
        0x08001c92:    b135        5.      CBZ      r5,0x8001ca2 ; eMBFuncWriteHoldingRegister + 56
        0x08001c94:    4628        (F      MOV      r0,r5
        0x08001c96:    f000fb6b    ..k.    BL       prveMBError2Exception ; 0x8002370
        0x08001c9a:    4680        .F      MOV      r8,r0
        0x08001c9c:    e001        ..      B        0x8001ca2 ; eMBFuncWriteHoldingRegister + 56
        0x08001c9e:    f04f0803    O...    MOV      r8,#3
        0x08001ca2:    4640        @F      MOV      r0,r8
        0x08001ca4:    e8bd81f0    ....    POP      {r4-r8,pc}
    i.eMBFuncWriteMultipleHoldingRegister
    eMBFuncWriteMultipleHoldingRegister
        0x08001ca8:    e92d47f0    -..G    PUSH     {r4-r10,lr}
        0x08001cac:    4604        .F      MOV      r4,r0
        0x08001cae:    460e        .F      MOV      r6,r1
        0x08001cb0:    f04f0a00    O...    MOV      r10,#0
        0x08001cb4:    8830        0.      LDRH     r0,[r6,#0]
        0x08001cb6:    2806        .(      CMP      r0,#6
        0x08001cb8:    db26        &.      BLT      0x8001d08 ; eMBFuncWriteMultipleHoldingRegister + 96
        0x08001cba:    7860        `x      LDRB     r0,[r4,#1]
        0x08001cbc:    ea4f2800    O..(    LSL      r8,r0,#8
        0x08001cc0:    78a0        .x      LDRB     r0,[r4,#2]
        0x08001cc2:    ea400808    @...    ORR      r8,r0,r8
        0x08001cc6:    78e0        .x      LDRB     r0,[r4,#3]
        0x08001cc8:    0205        ..      LSLS     r5,r0,#8
        0x08001cca:    7920         y      LDRB     r0,[r4,#4]
        0x08001ccc:    4305        .C      ORRS     r5,r5,r0
        0x08001cce:    f8949005    ....    LDRB     r9,[r4,#5]
        0x08001cd2:    2d01        .-      CMP      r5,#1
        0x08001cd4:    db15        ..      BLT      0x8001d02 ; eMBFuncWriteMultipleHoldingRegister + 90
        0x08001cd6:    2d78        x-      CMP      r5,#0x78
        0x08001cd8:    dc13        ..      BGT      0x8001d02 ; eMBFuncWriteMultipleHoldingRegister + 90
        0x08001cda:    0668        h.      LSLS     r0,r5,#25
        0x08001cdc:    0e00        ..      LSRS     r0,r0,#24
        0x08001cde:    4548        HE      CMP      r0,r9
        0x08001ce0:    d10f        ..      BNE      0x8001d02 ; eMBFuncWriteMultipleHoldingRegister + 90
        0x08001ce2:    2301        .#      MOVS     r3,#1
        0x08001ce4:    462a        *F      MOV      r2,r5
        0x08001ce6:    4641        AF      MOV      r1,r8
        0x08001ce8:    1da0        ..      ADDS     r0,r4,#6
        0x08001cea:    f000f9ff    ....    BL       eMBRegHoldingCB ; 0x80020ec
        0x08001cee:    4607        .F      MOV      r7,r0
        0x08001cf0:    b127        '.      CBZ      r7,0x8001cfc ; eMBFuncWriteMultipleHoldingRegister + 84
        0x08001cf2:    4638        8F      MOV      r0,r7
        0x08001cf4:    f000fb3c    ..<.    BL       prveMBError2Exception ; 0x8002370
        0x08001cf8:    4682        .F      MOV      r10,r0
        0x08001cfa:    e007        ..      B        0x8001d0c ; eMBFuncWriteMultipleHoldingRegister + 100
        0x08001cfc:    2005        .       MOVS     r0,#5
        0x08001cfe:    8030        0.      STRH     r0,[r6,#0]
        0x08001d00:    e004        ..      B        0x8001d0c ; eMBFuncWriteMultipleHoldingRegister + 100
        0x08001d02:    f04f0a03    O...    MOV      r10,#3
        0x08001d06:    e001        ..      B        0x8001d0c ; eMBFuncWriteMultipleHoldingRegister + 100
        0x08001d08:    f04f0a03    O...    MOV      r10,#3
        0x08001d0c:    4650        PF      MOV      r0,r10
        0x08001d0e:    e8bd87f0    ....    POP      {r4-r10,pc}
        0x08001d12:    0000        ..      MOVS     r0,r0
    i.eMBInit
    eMBInit
        0x08001d14:    e92d47f0    -..G    PUSH     {r4-r10,lr}
        0x08001d18:    4605        .F      MOV      r5,r0
        0x08001d1a:    460c        .F      MOV      r4,r1
        0x08001d1c:    4616        .F      MOV      r6,r2
        0x08001d1e:    461f        .F      MOV      r7,r3
        0x08001d20:    f8dd9020    .. .    LDR      r9,[sp,#0x20]
        0x08001d24:    f04f0800    O...    MOV      r8,#0
        0x08001d28:    b11c        ..      CBZ      r4,0x8001d32 ; eMBInit + 30
        0x08001d2a:    2c01        .,      CMP      r4,#1
        0x08001d2c:    db01        ..      BLT      0x8001d32 ; eMBInit + 30
        0x08001d2e:    2cf7        .,      CMP      r4,#0xf7
        0x08001d30:    dd02        ..      BLE      0x8001d38 ; eMBInit + 36
        0x08001d32:    f04f0802    O...    MOV      r8,#2
        0x08001d36:    e035        5.      B        0x8001da4 ; eMBInit + 144
        0x08001d38:    481c        .H      LDR      r0,[pc,#112] ; [0x8001dac] = 0x20000068
        0x08001d3a:    7004        .p      STRB     r4,[r0,#0]
        0x08001d3c:    bb05        ..      CBNZ     r5,0x8001d80 ; eMBInit + 108
        0x08001d3e:    481c        .H      LDR      r0,[pc,#112] ; [0x8001db0] = 0x80020c1
        0x08001d40:    491c        .I      LDR      r1,[pc,#112] ; [0x8001db4] = 0x20000070
        0x08001d42:    6008        .`      STR      r0,[r1,#0]
        0x08001d44:    481c        .H      LDR      r0,[pc,#112] ; [0x8001db8] = 0x80020dd
        0x08001d46:    491d        .I      LDR      r1,[pc,#116] ; [0x8001dbc] = 0x20000074
        0x08001d48:    6008        .`      STR      r0,[r1,#0]
        0x08001d4a:    481d        .H      LDR      r0,[pc,#116] ; [0x8001dc0] = 0x8002019
        0x08001d4c:    491d        .I      LDR      r1,[pc,#116] ; [0x8001dc4] = 0x2000006c
        0x08001d4e:    6008        .`      STR      r0,[r1,#0]
        0x08001d50:    481d        .H      LDR      r0,[pc,#116] ; [0x8001dc8] = 0x8001f7d
        0x08001d52:    491e        .I      LDR      r1,[pc,#120] ; [0x8001dcc] = 0x20000078
        0x08001d54:    6008        .`      STR      r0,[r1,#0]
        0x08001d56:    2000        .       MOVS     r0,#0
        0x08001d58:    491d        .I      LDR      r1,[pc,#116] ; [0x8001dd0] = 0x2000007c
        0x08001d5a:    6008        .`      STR      r0,[r1,#0]
        0x08001d5c:    481d        .H      LDR      r0,[pc,#116] ; [0x8001dd4] = 0x8002f4d
        0x08001d5e:    491e        .I      LDR      r1,[pc,#120] ; [0x8001dd8] = 0x20000080
        0x08001d60:    6008        .`      STR      r0,[r1,#0]
        0x08001d62:    481e        .H      LDR      r0,[pc,#120] ; [0x8001ddc] = 0x800309d
        0x08001d64:    491e        .I      LDR      r1,[pc,#120] ; [0x8001de0] = 0x20000084
        0x08001d66:    6008        .`      STR      r0,[r1,#0]
        0x08001d68:    481e        .H      LDR      r0,[pc,#120] ; [0x8001de4] = 0x800301d
        0x08001d6a:    491f        .I      LDR      r1,[pc,#124] ; [0x8001de8] = 0x20000088
        0x08001d6c:    6008        .`      STR      r0,[r1,#0]
        0x08001d6e:    464b        KF      MOV      r3,r9
        0x08001d70:    463a        :F      MOV      r2,r7
        0x08001d72:    4631        1F      MOV      r1,r6
        0x08001d74:    480d        .H      LDR      r0,[pc,#52] ; [0x8001dac] = 0x20000068
        0x08001d76:    7800        .x      LDRB     r0,[r0,#0]
        0x08001d78:    f000f8d8    ....    BL       eMBRTUInit ; 0x8001f2c
        0x08001d7c:    4680        .F      MOV      r8,r0
        0x08001d7e:    e002        ..      B        0x8001d86 ; eMBInit + 114
        0x08001d80:    f04f0802    O...    MOV      r8,#2
        0x08001d84:    bf00        ..      NOP      
        0x08001d86:    bf00        ..      NOP      
        0x08001d88:    f1b80f00    ....    CMP      r8,#0
        0x08001d8c:    d10a        ..      BNE      0x8001da4 ; eMBInit + 144
        0x08001d8e:    f001f87d    ..}.    BL       xMBPortEventInit ; 0x8002e8c
        0x08001d92:    b910        ..      CBNZ     r0,0x8001d9a ; eMBInit + 134
        0x08001d94:    f04f0803    O...    MOV      r8,#3
        0x08001d98:    e004        ..      B        0x8001da4 ; eMBInit + 144
        0x08001d9a:    4814        .H      LDR      r0,[pc,#80] ; [0x8001dec] = 0x20000069
        0x08001d9c:    7005        .p      STRB     r5,[r0,#0]
        0x08001d9e:    2001        .       MOVS     r0,#1
        0x08001da0:    4913        .I      LDR      r1,[pc,#76] ; [0x8001df0] = 0x2000006a
        0x08001da2:    7008        .p      STRB     r0,[r1,#0]
        0x08001da4:    4640        @F      MOV      r0,r8
        0x08001da6:    e8bd87f0    ....    POP      {r4-r10,pc}
    $d
        0x08001daa:    0000        ..      DCW    0
        0x08001dac:    20000068    h..     DCD    536871016
        0x08001db0:    080020c1    . ..    DCD    134226113
        0x08001db4:    20000070    p..     DCD    536871024
        0x08001db8:    080020dd    . ..    DCD    134226141
        0x08001dbc:    20000074    t..     DCD    536871028
        0x08001dc0:    08002019    . ..    DCD    134225945
        0x08001dc4:    2000006c    l..     DCD    536871020
        0x08001dc8:    08001f7d    }...    DCD    134225789
        0x08001dcc:    20000078    x..     DCD    536871032
        0x08001dd0:    2000007c    |..     DCD    536871036
        0x08001dd4:    08002f4d    M/..    DCD    134229837
        0x08001dd8:    20000080    ...     DCD    536871040
        0x08001ddc:    0800309d    .0..    DCD    134230173
        0x08001de0:    20000084    ...     DCD    536871044
        0x08001de4:    0800301d    .0..    DCD    134230045
        0x08001de8:    20000088    ...     DCD    536871048
        0x08001dec:    20000069    i..     DCD    536871017
        0x08001df0:    2000006a    j..     DCD    536871018
    $t
    i.eMBPoll
    eMBPoll
        0x08001df4:    b538        8.      PUSH     {r3-r5,lr}
        0x08001df6:    2500        .%      MOVS     r5,#0
        0x08001df8:    4841        AH      LDR      r0,[pc,#260] ; [0x8001f00] = 0x2000006a
        0x08001dfa:    7800        .x      LDRB     r0,[r0,#0]
        0x08001dfc:    b108        ..      CBZ      r0,0x8001e02 ; eMBPoll + 14
        0x08001dfe:    2006        .       MOVS     r0,#6
        0x08001e00:    bd38        8.      POP      {r3-r5,pc}
        0x08001e02:    4668        hF      MOV      r0,sp
        0x08001e04:    f001f830    ..0.    BL       xMBPortEventGet ; 0x8002e68
        0x08001e08:    2801        .(      CMP      r0,#1
        0x08001e0a:    d177        w.      BNE      0x8001efc ; eMBPoll + 264
        0x08001e0c:    f89d0000    ....    LDRB     r0,[sp,#0]
        0x08001e10:    b130        0.      CBZ      r0,0x8001e20 ; eMBPoll + 44
        0x08001e12:    2801        .(      CMP      r0,#1
        0x08001e14:    d005        ..      BEQ      0x8001e22 ; eMBPoll + 46
        0x08001e16:    2802        .(      CMP      r0,#2
        0x08001e18:    d018        ..      BEQ      0x8001e4c ; eMBPoll + 88
        0x08001e1a:    2803        .(      CMP      r0,#3
        0x08001e1c:    d16d        m.      BNE      0x8001efa ; eMBPoll + 262
        0x08001e1e:    e06b        k.      B        0x8001ef8 ; eMBPoll + 260
        0x08001e20:    e06b        k.      B        0x8001efa ; eMBPoll + 262
        0x08001e22:    4a38        8J      LDR      r2,[pc,#224] ; [0x8001f04] = 0x2000011a
        0x08001e24:    4938        8I      LDR      r1,[pc,#224] ; [0x8001f08] = 0x20000114
        0x08001e26:    4839        9H      LDR      r0,[pc,#228] ; [0x8001f0c] = 0x20000118
        0x08001e28:    4b39        9K      LDR      r3,[pc,#228] ; [0x8001f10] = 0x20000078
        0x08001e2a:    681b        .h      LDR      r3,[r3,#0]
        0x08001e2c:    4798        .G      BLX      r3
        0x08001e2e:    4605        .F      MOV      r5,r0
        0x08001e30:    b95d        ].      CBNZ     r5,0x8001e4a ; eMBPoll + 86
        0x08001e32:    4836        6H      LDR      r0,[pc,#216] ; [0x8001f0c] = 0x20000118
        0x08001e34:    7800        .x      LDRB     r0,[r0,#0]
        0x08001e36:    4937        7I      LDR      r1,[pc,#220] ; [0x8001f14] = 0x20000068
        0x08001e38:    7809        .x      LDRB     r1,[r1,#0]
        0x08001e3a:    4288        .B      CMP      r0,r1
        0x08001e3c:    d002        ..      BEQ      0x8001e44 ; eMBPoll + 80
        0x08001e3e:    4833        3H      LDR      r0,[pc,#204] ; [0x8001f0c] = 0x20000118
        0x08001e40:    7800        .x      LDRB     r0,[r0,#0]
        0x08001e42:    b910        ..      CBNZ     r0,0x8001e4a ; eMBPoll + 86
        0x08001e44:    2002        .       MOVS     r0,#2
        0x08001e46:    f001f829    ..).    BL       xMBPortEventPost ; 0x8002e9c
        0x08001e4a:    e056        V.      B        0x8001efa ; eMBPoll + 262
        0x08001e4c:    482e        .H      LDR      r0,[pc,#184] ; [0x8001f08] = 0x20000114
        0x08001e4e:    6800        .h      LDR      r0,[r0,#0]
        0x08001e50:    7800        .x      LDRB     r0,[r0,#0]
        0x08001e52:    4931        1I      LDR      r1,[pc,#196] ; [0x8001f18] = 0x20000119
        0x08001e54:    7008        .p      STRB     r0,[r1,#0]
        0x08001e56:    2001        .       MOVS     r0,#1
        0x08001e58:    4930        0I      LDR      r1,[pc,#192] ; [0x8001f1c] = 0x2000011c
        0x08001e5a:    7008        .p      STRB     r0,[r1,#0]
        0x08001e5c:    2400        .$      MOVS     r4,#0
        0x08001e5e:    e017        ..      B        0x8001e90 ; eMBPoll + 156
        0x08001e60:    482f        /H      LDR      r0,[pc,#188] ; [0x8001f20] = 0x20000094
        0x08001e62:    f8100034    ..4.    LDRB     r0,[r0,r4,LSL #3]
        0x08001e66:    b900        ..      CBNZ     r0,0x8001e6a ; eMBPoll + 118
        0x08001e68:    e014        ..      B        0x8001e94 ; eMBPoll + 160
        0x08001e6a:    482d        -H      LDR      r0,[pc,#180] ; [0x8001f20] = 0x20000094
        0x08001e6c:    f8100034    ..4.    LDRB     r0,[r0,r4,LSL #3]
        0x08001e70:    4929        )I      LDR      r1,[pc,#164] ; [0x8001f18] = 0x20000119
        0x08001e72:    7809        .x      LDRB     r1,[r1,#0]
        0x08001e74:    4288        .B      CMP      r0,r1
        0x08001e76:    d10a        ..      BNE      0x8001e8e ; eMBPoll + 154
        0x08001e78:    4829        )H      LDR      r0,[pc,#164] ; [0x8001f20] = 0x20000094
        0x08001e7a:    eb0000c4    ....    ADD      r0,r0,r4,LSL #3
        0x08001e7e:    4921        !I      LDR      r1,[pc,#132] ; [0x8001f04] = 0x2000011a
        0x08001e80:    6842        Bh      LDR      r2,[r0,#4]
        0x08001e82:    4821        !H      LDR      r0,[pc,#132] ; [0x8001f08] = 0x20000114
        0x08001e84:    6800        .h      LDR      r0,[r0,#0]
        0x08001e86:    4790        .G      BLX      r2
        0x08001e88:    4924        $I      LDR      r1,[pc,#144] ; [0x8001f1c] = 0x2000011c
        0x08001e8a:    7008        .p      STRB     r0,[r1,#0]
        0x08001e8c:    e002        ..      B        0x8001e94 ; eMBPoll + 160
        0x08001e8e:    1c64        d.      ADDS     r4,r4,#1
        0x08001e90:    2c10        .,      CMP      r4,#0x10
        0x08001e92:    dbe5        ..      BLT      0x8001e60 ; eMBPoll + 108
        0x08001e94:    bf00        ..      NOP      
        0x08001e96:    481d        .H      LDR      r0,[pc,#116] ; [0x8001f0c] = 0x20000118
        0x08001e98:    7800        .x      LDRB     r0,[r0,#0]
        0x08001e9a:    b358        X.      CBZ      r0,0x8001ef4 ; eMBPoll + 256
        0x08001e9c:    481f        .H      LDR      r0,[pc,#124] ; [0x8001f1c] = 0x2000011c
        0x08001e9e:    7800        .x      LDRB     r0,[r0,#0]
        0x08001ea0:    b1c8        ..      CBZ      r0,0x8001ed6 ; eMBPoll + 226
        0x08001ea2:    2000        .       MOVS     r0,#0
        0x08001ea4:    4917        .I      LDR      r1,[pc,#92] ; [0x8001f04] = 0x2000011a
        0x08001ea6:    8008        ..      STRH     r0,[r1,#0]
        0x08001ea8:    481b        .H      LDR      r0,[pc,#108] ; [0x8001f18] = 0x20000119
        0x08001eaa:    7800        .x      LDRB     r0,[r0,#0]
        0x08001eac:    f0400180    @...    ORR      r1,r0,#0x80
        0x08001eb0:    4814        .H      LDR      r0,[pc,#80] ; [0x8001f04] = 0x2000011a
        0x08001eb2:    8802        ..      LDRH     r2,[r0,#0]
        0x08001eb4:    8800        ..      LDRH     r0,[r0,#0]
        0x08001eb6:    1c40        @.      ADDS     r0,r0,#1
        0x08001eb8:    4b12        .K      LDR      r3,[pc,#72] ; [0x8001f04] = 0x2000011a
        0x08001eba:    8018        ..      STRH     r0,[r3,#0]
        0x08001ebc:    4812        .H      LDR      r0,[pc,#72] ; [0x8001f08] = 0x20000114
        0x08001ebe:    6800        .h      LDR      r0,[r0,#0]
        0x08001ec0:    5481        .T      STRB     r1,[r0,r2]
        0x08001ec2:    4816        .H      LDR      r0,[pc,#88] ; [0x8001f1c] = 0x2000011c
        0x08001ec4:    7802        .x      LDRB     r2,[r0,#0]
        0x08001ec6:    4618        .F      MOV      r0,r3
        0x08001ec8:    8801        ..      LDRH     r1,[r0,#0]
        0x08001eca:    8800        ..      LDRH     r0,[r0,#0]
        0x08001ecc:    1c40        @.      ADDS     r0,r0,#1
        0x08001ece:    8018        ..      STRH     r0,[r3,#0]
        0x08001ed0:    480d        .H      LDR      r0,[pc,#52] ; [0x8001f08] = 0x20000114
        0x08001ed2:    6800        .h      LDR      r0,[r0,#0]
        0x08001ed4:    5442        BT      STRB     r2,[r0,r1]
        0x08001ed6:    4813        .H      LDR      r0,[pc,#76] ; [0x8001f24] = 0x20000069
        0x08001ed8:    7800        .x      LDRB     r0,[r0,#0]
        0x08001eda:    2801        .(      CMP      r0,#1
        0x08001edc:    d100        ..      BNE      0x8001ee0 ; eMBPoll + 236
        0x08001ede:    bf00        ..      NOP      
        0x08001ee0:    4808        .H      LDR      r0,[pc,#32] ; [0x8001f04] = 0x2000011a
        0x08001ee2:    8802        ..      LDRH     r2,[r0,#0]
        0x08001ee4:    4808        .H      LDR      r0,[pc,#32] ; [0x8001f08] = 0x20000114
        0x08001ee6:    6801        .h      LDR      r1,[r0,#0]
        0x08001ee8:    480a        .H      LDR      r0,[pc,#40] ; [0x8001f14] = 0x20000068
        0x08001eea:    7800        .x      LDRB     r0,[r0,#0]
        0x08001eec:    4b0e        .K      LDR      r3,[pc,#56] ; [0x8001f28] = 0x2000006c
        0x08001eee:    681b        .h      LDR      r3,[r3,#0]
        0x08001ef0:    4798        .G      BLX      r3
        0x08001ef2:    4605        .F      MOV      r5,r0
        0x08001ef4:    e001        ..      B        0x8001efa ; eMBPoll + 262
        0x08001ef6:    e001        ..      B        0x8001efc ; eMBPoll + 264
        0x08001ef8:    bf00        ..      NOP      
        0x08001efa:    bf00        ..      NOP      
        0x08001efc:    2000        .       MOVS     r0,#0
        0x08001efe:    e77f        ..      B        0x8001e00 ; eMBPoll + 12
    $d
        0x08001f00:    2000006a    j..     DCD    536871018
        0x08001f04:    2000011a    ...     DCD    536871194
        0x08001f08:    20000114    ...     DCD    536871188
        0x08001f0c:    20000118    ...     DCD    536871192
        0x08001f10:    20000078    x..     DCD    536871032
        0x08001f14:    20000068    h..     DCD    536871016
        0x08001f18:    20000119    ...     DCD    536871193
        0x08001f1c:    2000011c    ...     DCD    536871196
        0x08001f20:    20000094    ...     DCD    536871060
        0x08001f24:    20000069    i..     DCD    536871017
        0x08001f28:    2000006c    l..     DCD    536871020
    $t
    i.eMBRTUInit
    eMBRTUInit
        0x08001f2c:    e92d47f0    -..G    PUSH     {r4-r10,lr}
        0x08001f30:    4681        .F      MOV      r9,r0
        0x08001f32:    460e        .F      MOV      r6,r1
        0x08001f34:    4614        .F      MOV      r4,r2
        0x08001f36:    461f        .F      MOV      r7,r3
        0x08001f38:    f04f0800    O...    MOV      r8,#0
        0x08001f3c:    463b        ;F      MOV      r3,r7
        0x08001f3e:    2208        ."      MOVS     r2,#8
        0x08001f40:    4621        !F      MOV      r1,r4
        0x08001f42:    4630        0F      MOV      r0,r6
        0x08001f44:    f000ffc2    ....    BL       xMBPortSerialInit ; 0x8002ecc
        0x08001f48:    2801        .(      CMP      r0,#1
        0x08001f4a:    d002        ..      BEQ      0x8001f52 ; eMBRTUInit + 38
        0x08001f4c:    f04f0803    O...    MOV      r8,#3
        0x08001f50:    e00f        ..      B        0x8001f72 ; eMBRTUInit + 70
        0x08001f52:    f5b44f96    ...O    CMP      r4,#0x4b00
        0x08001f56:    d901        ..      BLS      0x8001f5c ; eMBRTUInit + 48
        0x08001f58:    2523        #%      MOVS     r5,#0x23
        0x08001f5a:    e003        ..      B        0x8001f64 ; eMBRTUInit + 56
        0x08001f5c:    0060        `.      LSLS     r0,r4,#1
        0x08001f5e:    4906        .I      LDR      r1,[pc,#24] ; [0x8001f78] = 0x177fa0
        0x08001f60:    fbb1f5f0    ....    UDIV     r5,r1,r0
        0x08001f64:    b2a8        ..      UXTH     r0,r5
        0x08001f66:    f000ffcd    ....    BL       xMBPortTimersInit ; 0x8002f04
        0x08001f6a:    2801        .(      CMP      r0,#1
        0x08001f6c:    d001        ..      BEQ      0x8001f72 ; eMBRTUInit + 70
        0x08001f6e:    f04f0803    O...    MOV      r8,#3
        0x08001f72:    4640        @F      MOV      r0,r8
        0x08001f74:    e8bd87f0    ....    POP      {r4-r10,pc}
    $d
        0x08001f78:    00177fa0    ....    DCD    1540000
    $t
    i.eMBRTUReceive
    eMBRTUReceive
        0x08001f7c:    e92d41f0    -..A    PUSH     {r4-r8,lr}
        0x08001f80:    4604        .F      MOV      r4,r0
        0x08001f82:    460d        .F      MOV      r5,r1
        0x08001f84:    4616        .F      MOV      r6,r2
        0x08001f86:    2700        .'      MOVS     r7,#0
        0x08001f88:    4811        .H      LDR      r0,[pc,#68] ; [0x8001fd0] = 0x2000012a
        0x08001f8a:    8800        ..      LDRH     r0,[r0,#0]
        0x08001f8c:    28ff        .(      CMP      r0,#0xff
        0x08001f8e:    dc00        ..      BGT      0x8001f92 ; eMBRTUReceive + 22
        0x08001f90:    e004        ..      B        0x8001f9c ; eMBRTUReceive + 32
        0x08001f92:    229c        ."      MOVS     r2,#0x9c
        0x08001f94:    a10f        ..      ADR      r1,{pc}+0x40 ; 0x8001fd4
        0x08001f96:    a015        ..      ADR      r0,{pc}+0x56 ; 0x8001fec
        0x08001f98:    f7fff9f0    ....    BL       __aeabi_assert ; 0x800137c
        0x08001f9c:    480c        .H      LDR      r0,[pc,#48] ; [0x8001fd0] = 0x2000012a
        0x08001f9e:    8800        ..      LDRH     r0,[r0,#0]
        0x08001fa0:    2804        .(      CMP      r0,#4
        0x08001fa2:    db10        ..      BLT      0x8001fc6 ; eMBRTUReceive + 74
        0x08001fa4:    480a        .H      LDR      r0,[pc,#40] ; [0x8001fd0] = 0x2000012a
        0x08001fa6:    8801        ..      LDRH     r1,[r0,#0]
        0x08001fa8:    481a        .H      LDR      r0,[pc,#104] ; [0x8002014] = 0x200001dc
        0x08001faa:    f000fde1    ....    BL       usMBCRC16 ; 0x8002b70
        0x08001fae:    b950        P.      CBNZ     r0,0x8001fc6 ; eMBRTUReceive + 74
        0x08001fb0:    4818        .H      LDR      r0,[pc,#96] ; [0x8002014] = 0x200001dc
        0x08001fb2:    7800        .x      LDRB     r0,[r0,#0]
        0x08001fb4:    7020         p      STRB     r0,[r4,#0]
        0x08001fb6:    4806        .H      LDR      r0,[pc,#24] ; [0x8001fd0] = 0x2000012a
        0x08001fb8:    8800        ..      LDRH     r0,[r0,#0]
        0x08001fba:    1ec0        ..      SUBS     r0,r0,#3
        0x08001fbc:    8030        0.      STRH     r0,[r6,#0]
        0x08001fbe:    4815        .H      LDR      r0,[pc,#84] ; [0x8002014] = 0x200001dc
        0x08001fc0:    1c40        @.      ADDS     r0,r0,#1
        0x08001fc2:    6028        (`      STR      r0,[r5,#0]
        0x08001fc4:    e000        ..      B        0x8001fc8 ; eMBRTUReceive + 76
        0x08001fc6:    2705        .'      MOVS     r7,#5
        0x08001fc8:    4638        8F      MOV      r0,r7
        0x08001fca:    e8bd81f0    ....    POP      {r4-r8,pc}
    $d
        0x08001fce:    0000        ..      DCW    0
        0x08001fd0:    2000012a    *..     DCD    536871210
        0x08001fd4:    5f64694d    Mid_    DCD    1600416077
        0x08001fd8:    62646f4d    Modb    DCD    1650749261
        0x08001fdc:    725c7375    us\r    DCD    1918661493
        0x08001fe0:    6d5c7574    tu\m    DCD    1834775924
        0x08001fe4:    75747262    brtu    DCD    1970565730
        0x08001fe8:    0000632e    .c..    DCD    25390
        0x08001fec:    63527375    usRc    DCD    1666347893
        0x08001ff0:    66754276    vBuf    DCD    1718960758
        0x08001ff4:    50726566    ferP    DCD    1349674342
        0x08001ff8:    3c20736f    os <    DCD    1008759663
        0x08001ffc:    5f424d20     MB_    DCD    1598180640
        0x08002000:    5f524553    SER_    DCD    1599227219
        0x08002004:    5f554450    PDU_    DCD    1599423568
        0x08002008:    455a4953    SIZE    DCD    1163544915
        0x0800200c:    58414d5f    _MAX    DCD    1480674655
        0x08002010:    00000000    ....    DCD    0
        0x08002014:    200001dc    ...     DCD    536871388
    $t
    i.eMBRTUSend
    eMBRTUSend
        0x08002018:    e92d41f0    -..A    PUSH     {r4-r8,lr}
        0x0800201c:    4605        .F      MOV      r5,r0
        0x0800201e:    460e        .F      MOV      r6,r1
        0x08002020:    4617        .F      MOV      r7,r2
        0x08002022:    f04f0800    O...    MOV      r8,#0
        0x08002026:    4821        !H      LDR      r0,[pc,#132] ; [0x80020ac] = 0x20000121
        0x08002028:    7800        .x      LDRB     r0,[r0,#0]
        0x0800202a:    2801        .(      CMP      r0,#1
        0x0800202c:    d138        8.      BNE      0x80020a0 ; eMBRTUSend + 136
        0x0800202e:    1e70        p.      SUBS     r0,r6,#1
        0x08002030:    491f        .I      LDR      r1,[pc,#124] ; [0x80020b0] = 0x20000124
        0x08002032:    6008        .`      STR      r0,[r1,#0]
        0x08002034:    2001        .       MOVS     r0,#1
        0x08002036:    491f        .I      LDR      r1,[pc,#124] ; [0x80020b4] = 0x20000128
        0x08002038:    8008        ..      STRH     r0,[r1,#0]
        0x0800203a:    481d        .H      LDR      r0,[pc,#116] ; [0x80020b0] = 0x20000124
        0x0800203c:    6800        .h      LDR      r0,[r0,#0]
        0x0800203e:    7005        .p      STRB     r5,[r0,#0]
        0x08002040:    4608        .F      MOV      r0,r1
        0x08002042:    8800        ..      LDRH     r0,[r0,#0]
        0x08002044:    4438        8D      ADD      r0,r0,r7
        0x08002046:    8008        ..      STRH     r0,[r1,#0]
        0x08002048:    4608        .F      MOV      r0,r1
        0x0800204a:    8801        ..      LDRH     r1,[r0,#0]
        0x0800204c:    4818        .H      LDR      r0,[pc,#96] ; [0x80020b0] = 0x20000124
        0x0800204e:    6800        .h      LDR      r0,[r0,#0]
        0x08002050:    f000fd8e    ....    BL       usMBCRC16 ; 0x8002b70
        0x08002054:    4604        .F      MOV      r4,r0
        0x08002056:    4917        .I      LDR      r1,[pc,#92] ; [0x80020b4] = 0x20000128
        0x08002058:    8808        ..      LDRH     r0,[r1,#0]
        0x0800205a:    1c41        A.      ADDS     r1,r0,#1
        0x0800205c:    4b15        .K      LDR      r3,[pc,#84] ; [0x80020b4] = 0x20000128
        0x0800205e:    8019        ..      STRH     r1,[r3,#0]
        0x08002060:    4915        .I      LDR      r1,[pc,#84] ; [0x80020b8] = 0x200001dc
        0x08002062:    540c        .T      STRB     r4,[r1,r0]
        0x08002064:    1222        ".      ASRS     r2,r4,#8
        0x08002066:    4619        .F      MOV      r1,r3
        0x08002068:    8808        ..      LDRH     r0,[r1,#0]
        0x0800206a:    1c41        A.      ADDS     r1,r0,#1
        0x0800206c:    8019        ..      STRH     r1,[r3,#0]
        0x0800206e:    4912        .I      LDR      r1,[pc,#72] ; [0x80020b8] = 0x200001dc
        0x08002070:    540a        .T      STRB     r2,[r1,r0]
        0x08002072:    2001        .       MOVS     r0,#1
        0x08002074:    4911        .I      LDR      r1,[pc,#68] ; [0x80020bc] = 0x20000120
        0x08002076:    7008        .p      STRB     r0,[r1,#0]
        0x08002078:    490d        .I      LDR      r1,[pc,#52] ; [0x80020b0] = 0x20000124
        0x0800207a:    6809        .h      LDR      r1,[r1,#0]
        0x0800207c:    7808        .x      LDRB     r0,[r1,#0]
        0x0800207e:    f000ff35    ..5.    BL       xMBPortSerialPutByte ; 0x8002eec
        0x08002082:    480b        .H      LDR      r0,[pc,#44] ; [0x80020b0] = 0x20000124
        0x08002084:    6800        .h      LDR      r0,[r0,#0]
        0x08002086:    1c40        @.      ADDS     r0,r0,#1
        0x08002088:    4909        .I      LDR      r1,[pc,#36] ; [0x80020b0] = 0x20000124
        0x0800208a:    6008        .`      STR      r0,[r1,#0]
        0x0800208c:    4809        .H      LDR      r0,[pc,#36] ; [0x80020b4] = 0x20000128
        0x0800208e:    8800        ..      LDRH     r0,[r0,#0]
        0x08002090:    1e40        @.      SUBS     r0,r0,#1
        0x08002092:    4908        .I      LDR      r1,[pc,#32] ; [0x80020b4] = 0x20000128
        0x08002094:    8008        ..      STRH     r0,[r1,#0]
        0x08002096:    2101        .!      MOVS     r1,#1
        0x08002098:    2000        .       MOVS     r0,#0
        0x0800209a:    f000fe87    ....    BL       vMBPortSerialEnable ; 0x8002dac
        0x0800209e:    e001        ..      B        0x80020a4 ; eMBRTUSend + 140
        0x080020a0:    f04f0805    O...    MOV      r8,#5
        0x080020a4:    4640        @F      MOV      r0,r8
        0x080020a6:    e8bd81f0    ....    POP      {r4-r8,pc}
    $d
        0x080020aa:    0000        ..      DCW    0
        0x080020ac:    20000121    !..     DCD    536871201
        0x080020b0:    20000124    $..     DCD    536871204
        0x080020b4:    20000128    (..     DCD    536871208
        0x080020b8:    200001dc    ...     DCD    536871388
        0x080020bc:    20000120     ..     DCD    536871200
    $t
    i.eMBRTUStart
    eMBRTUStart
        0x080020c0:    b510        ..      PUSH     {r4,lr}
        0x080020c2:    2000        .       MOVS     r0,#0
        0x080020c4:    4904        .I      LDR      r1,[pc,#16] ; [0x80020d8] = 0x20000121
        0x080020c6:    7008        .p      STRB     r0,[r1,#0]
        0x080020c8:    2100        .!      MOVS     r1,#0
        0x080020ca:    2001        .       MOVS     r0,#1
        0x080020cc:    f000fe6e    ..n.    BL       vMBPortSerialEnable ; 0x8002dac
        0x080020d0:    f000feb6    ....    BL       vMBPortTimersEnable ; 0x8002e40
        0x080020d4:    bd10        ..      POP      {r4,pc}
    $d
        0x080020d6:    0000        ..      DCW    0
        0x080020d8:    20000121    !..     DCD    536871201
    $t
    i.eMBRTUStop
    eMBRTUStop
        0x080020dc:    b510        ..      PUSH     {r4,lr}
        0x080020de:    2100        .!      MOVS     r1,#0
        0x080020e0:    4608        .F      MOV      r0,r1
        0x080020e2:    f000fe63    ..c.    BL       vMBPortSerialEnable ; 0x8002dac
        0x080020e6:    f000fe97    ....    BL       vMBPortTimersDisable ; 0x8002e18
        0x080020ea:    bd10        ..      POP      {r4,pc}
    i.eMBRegHoldingCB
    eMBRegHoldingCB
        0x080020ec:    e92d41f0    -..A    PUSH     {r4-r8,lr}
        0x080020f0:    4607        .F      MOV      r7,r0
        0x080020f2:    460c        .F      MOV      r4,r1
        0x080020f4:    4615        .F      MOV      r5,r2
        0x080020f6:    4698        .F      MOV      r8,r3
        0x080020f8:    f1b80f00    ....    CMP      r8,#0
        0x080020fc:    d107        ..      BNE      0x800210e ; eMBRegHoldingCB + 34
        0x080020fe:    b2e9        ..      UXTB     r1,r5
        0x08002100:    b2e0        ..      UXTB     r0,r4
        0x08002102:    4a08        .J      LDR      r2,[pc,#32] ; [0x8002124] = 0x2000012c
        0x08002104:    6813        .h      LDR      r3,[r2,#0]
        0x08002106:    463a        :F      MOV      r2,r7
        0x08002108:    4798        .G      BLX      r3
        0x0800210a:    4606        .F      MOV      r6,r0
        0x0800210c:    e006        ..      B        0x800211c ; eMBRegHoldingCB + 48
        0x0800210e:    b2e9        ..      UXTB     r1,r5
        0x08002110:    b2e0        ..      UXTB     r0,r4
        0x08002112:    4a04        .J      LDR      r2,[pc,#16] ; [0x8002124] = 0x2000012c
        0x08002114:    6853        Sh      LDR      r3,[r2,#4]
        0x08002116:    463a        :F      MOV      r2,r7
        0x08002118:    4798        .G      BLX      r3
        0x0800211a:    4606        .F      MOV      r6,r0
        0x0800211c:    4630        0F      MOV      r0,r6
        0x0800211e:    e8bd81f0    ....    POP      {r4-r8,pc}
    $d
        0x08002122:    0000        ..      DCW    0
        0x08002124:    2000012c    ,..     DCD    536871212
    $t
    i.eMBSetSlaveAddr
    eMBSetSlaveAddr
        0x08002128:    4601        .F      MOV      r1,r0
        0x0800212a:    2000        .       MOVS     r0,#0
        0x0800212c:    b119        ..      CBZ      r1,0x8002136 ; eMBSetSlaveAddr + 14
        0x0800212e:    2901        .)      CMP      r1,#1
        0x08002130:    db01        ..      BLT      0x8002136 ; eMBSetSlaveAddr + 14
        0x08002132:    29f7        .)      CMP      r1,#0xf7
        0x08002134:    dd01        ..      BLE      0x800213a ; eMBSetSlaveAddr + 18
        0x08002136:    2002        .       MOVS     r0,#2
        0x08002138:    e001        ..      B        0x800213e ; eMBSetSlaveAddr + 22
        0x0800213a:    4a01        .J      LDR      r2,[pc,#4] ; [0x8002140] = 0x20000068
        0x0800213c:    7011        .p      STRB     r1,[r2,#0]
        0x0800213e:    4770        pG      BX       lr
    $d
        0x08002140:    20000068    h..     DCD    536871016
    $t
    i.fputc
    fputc
        0x08002144:    b570        p.      PUSH     {r4-r6,lr}
        0x08002146:    4604        .F      MOV      r4,r0
        0x08002148:    460d        .F      MOV      r5,r1
        0x0800214a:    b2e1        ..      UXTB     r1,r4
        0x0800214c:    4a06        .J      LDR      r2,[pc,#24] ; [0x8002168] = 0x2000019c
        0x0800214e:    6810        .h      LDR      r0,[r2,#0]
        0x08002150:    f000fd77    ..w.    BL       usart_data_transmit ; 0x8002c42
        0x08002154:    bf00        ..      NOP      
        0x08002156:    4904        .I      LDR      r1,[pc,#16] ; [0x8002168] = 0x2000019c
        0x08002158:    6808        .h      LDR      r0,[r1,#0]
        0x0800215a:    2107        .!      MOVS     r1,#7
        0x0800215c:    f000fdc3    ....    BL       usart_flag_get ; 0x8002ce6
        0x08002160:    2800        .(      CMP      r0,#0
        0x08002162:    d0f8        ..      BEQ      0x8002156 ; fputc + 18
        0x08002164:    4620         F      MOV      r0,r4
        0x08002166:    bd70        p.      POP      {r4-r6,pc}
    $d
        0x08002168:    2000019c    ...     DCD    536871324
    $t
    i.fputs
    fputs
        0x0800216c:    b570        p.      PUSH     {r4-r6,lr}
        0x0800216e:    460d        .F      MOV      r5,r1
        0x08002170:    4604        .F      MOV      r4,r0
        0x08002172:    e002        ..      B        0x800217a ; fputs + 14
        0x08002174:    4629        )F      MOV      r1,r5
        0x08002176:    f7ffffe5    ....    BL       fputc ; 0x8002144
        0x0800217a:    f8140b01    ....    LDRB     r0,[r4],#1
        0x0800217e:    2800        .(      CMP      r0,#0
        0x08002180:    d1f8        ..      BNE      0x8002174 ; fputs + 8
        0x08002182:    bd70        p.      POP      {r4-r6,pc}
    i.gpio_bit_reset
    gpio_bit_reset
        0x08002184:    6141        Aa      STR      r1,[r0,#0x14]
        0x08002186:    4770        pG      BX       lr
    i.gpio_bit_set
    gpio_bit_set
        0x08002188:    6101        .a      STR      r1,[r0,#0x10]
        0x0800218a:    4770        pG      BX       lr
    i.gpio_bit_write
    gpio_bit_write
        0x0800218c:    b10a        ..      CBZ      r2,0x8002192 ; gpio_bit_write + 6
        0x0800218e:    6101        .a      STR      r1,[r0,#0x10]
        0x08002190:    e000        ..      B        0x8002194 ; gpio_bit_write + 8
        0x08002192:    6141        Aa      STR      r1,[r0,#0x14]
        0x08002194:    4770        pG      BX       lr
    i.gpio_init
    gpio_init
        0x08002196:    b5f0        ..      PUSH     {r4-r7,lr}
        0x08002198:    4604        .F      MOV      r4,r0
        0x0800219a:    4616        .F      MOV      r6,r2
        0x0800219c:    2500        .%      MOVS     r5,#0
        0x0800219e:    2200        ."      MOVS     r2,#0
        0x080021a0:    f001050f    ....    AND      r5,r1,#0xf
        0x080021a4:    f0010710    ....    AND      r7,r1,#0x10
        0x080021a8:    b147        G.      CBZ      r7,0x80021bc ; gpio_init + 38
        0x080021aa:    2e04        ..      CMP      r6,#4
        0x080021ac:    d105        ..      BNE      0x80021ba ; gpio_init + 36
        0x080021ae:    f0450503    E...    ORR      r5,r5,#3
        0x080021b2:    6be7        .k      LDR      r7,[r4,#0x3c]
        0x080021b4:    431f        .C      ORRS     r7,r7,r3
        0x080021b6:    63e7        .c      STR      r7,[r4,#0x3c]
        0x080021b8:    e000        ..      B        0x80021bc ; gpio_init + 38
        0x080021ba:    4335        5C      ORRS     r5,r5,r6
        0x080021bc:    2000        .       MOVS     r0,#0
        0x080021be:    e01e        ..      B        0x80021fe ; gpio_init + 104
        0x080021c0:    2701        .'      MOVS     r7,#1
        0x080021c2:    4087        .@      LSLS     r7,r7,r0
        0x080021c4:    401f        .@      ANDS     r7,r7,r3
        0x080021c6:    b1c7        ..      CBZ      r7,0x80021fa ; gpio_init + 100
        0x080021c8:    6822        "h      LDR      r2,[r4,#0]
        0x080021ca:    ea4f0c80    O...    LSL      r12,r0,#2
        0x080021ce:    270f        .'      MOVS     r7,#0xf
        0x080021d0:    fa07f70c    ....    LSL      r7,r7,r12
        0x080021d4:    43ba        .C      BICS     r2,r2,r7
        0x080021d6:    0087        ..      LSLS     r7,r0,#2
        0x080021d8:    fa05f707    ....    LSL      r7,r5,r7
        0x080021dc:    433a        :C      ORRS     r2,r2,r7
        0x080021de:    2928        ()      CMP      r1,#0x28
        0x080021e0:    d104        ..      BNE      0x80021ec ; gpio_init + 86
        0x080021e2:    2701        .'      MOVS     r7,#1
        0x080021e4:    4087        .@      LSLS     r7,r7,r0
        0x080021e6:    401f        .@      ANDS     r7,r7,r3
        0x080021e8:    6167        ga      STR      r7,[r4,#0x14]
        0x080021ea:    e005        ..      B        0x80021f8 ; gpio_init + 98
        0x080021ec:    2948        H)      CMP      r1,#0x48
        0x080021ee:    d103        ..      BNE      0x80021f8 ; gpio_init + 98
        0x080021f0:    2701        .'      MOVS     r7,#1
        0x080021f2:    4087        .@      LSLS     r7,r7,r0
        0x080021f4:    401f        .@      ANDS     r7,r7,r3
        0x080021f6:    6127        'a      STR      r7,[r4,#0x10]
        0x080021f8:    6022        "`      STR      r2,[r4,#0]
        0x080021fa:    1c47        G.      ADDS     r7,r0,#1
        0x080021fc:    b2b8        ..      UXTH     r0,r7
        0x080021fe:    2808        .(      CMP      r0,#8
        0x08002200:    d3de        ..      BCC      0x80021c0 ; gpio_init + 42
        0x08002202:    2008        .       MOVS     r0,#8
        0x08002204:    e022        ".      B        0x800224c ; gpio_init + 182
        0x08002206:    2701        .'      MOVS     r7,#1
        0x08002208:    4087        .@      LSLS     r7,r7,r0
        0x0800220a:    401f        .@      ANDS     r7,r7,r3
        0x0800220c:    b1e7        ..      CBZ      r7,0x8002248 ; gpio_init + 178
        0x0800220e:    6862        bh      LDR      r2,[r4,#4]
        0x08002210:    f1a00708    ....    SUB      r7,r0,#8
        0x08002214:    ea4f0c87    O...    LSL      r12,r7,#2
        0x08002218:    270f        .'      MOVS     r7,#0xf
        0x0800221a:    fa07f70c    ....    LSL      r7,r7,r12
        0x0800221e:    43ba        .C      BICS     r2,r2,r7
        0x08002220:    f1a00708    ....    SUB      r7,r0,#8
        0x08002224:    00bf        ..      LSLS     r7,r7,#2
        0x08002226:    fa05f707    ....    LSL      r7,r5,r7
        0x0800222a:    433a        :C      ORRS     r2,r2,r7
        0x0800222c:    2928        ()      CMP      r1,#0x28
        0x0800222e:    d104        ..      BNE      0x800223a ; gpio_init + 164
        0x08002230:    2701        .'      MOVS     r7,#1
        0x08002232:    4087        .@      LSLS     r7,r7,r0
        0x08002234:    401f        .@      ANDS     r7,r7,r3
        0x08002236:    6167        ga      STR      r7,[r4,#0x14]
        0x08002238:    e005        ..      B        0x8002246 ; gpio_init + 176
        0x0800223a:    2948        H)      CMP      r1,#0x48
        0x0800223c:    d103        ..      BNE      0x8002246 ; gpio_init + 176
        0x0800223e:    2701        .'      MOVS     r7,#1
        0x08002240:    4087        .@      LSLS     r7,r7,r0
        0x08002242:    401f        .@      ANDS     r7,r7,r3
        0x08002244:    6127        'a      STR      r7,[r4,#0x10]
        0x08002246:    6062        b`      STR      r2,[r4,#4]
        0x08002248:    1c47        G.      ADDS     r7,r0,#1
        0x0800224a:    b2b8        ..      UXTH     r0,r7
        0x0800224c:    2810        .(      CMP      r0,#0x10
        0x0800224e:    d3da        ..      BCC      0x8002206 ; gpio_init + 112
        0x08002250:    bdf0        ..      POP      {r4-r7,pc}
    i.gpio_input_bit_get
    gpio_input_bit_get
        0x08002252:    4602        .F      MOV      r2,r0
        0x08002254:    6890        .h      LDR      r0,[r2,#8]
        0x08002256:    4008        .@      ANDS     r0,r0,r1
        0x08002258:    b108        ..      CBZ      r0,0x800225e ; gpio_input_bit_get + 12
        0x0800225a:    2001        .       MOVS     r0,#1
        0x0800225c:    4770        pG      BX       lr
        0x0800225e:    2000        .       MOVS     r0,#0
        0x08002260:    e7fc        ..      B        0x800225c ; gpio_input_bit_get + 10
    i.gpio_output_bit_get
    gpio_output_bit_get
        0x08002262:    4602        .F      MOV      r2,r0
        0x08002264:    68d0        .h      LDR      r0,[r2,#0xc]
        0x08002266:    4008        .@      ANDS     r0,r0,r1
        0x08002268:    b108        ..      CBZ      r0,0x800226e ; gpio_output_bit_get + 12
        0x0800226a:    2001        .       MOVS     r0,#1
        0x0800226c:    4770        pG      BX       lr
        0x0800226e:    2000        .       MOVS     r0,#0
        0x08002270:    e7fc        ..      B        0x800226c ; gpio_output_bit_get + 10
    i.main
    main
        0x08002272:    f7fef8fd    ....    BL       DrvInit ; 0x8000470
        0x08002276:    f7fef89b    ....    BL       AppInit ; 0x80003b0
        0x0800227a:    e001        ..      B        0x8002280 ; main + 14
        0x0800227c:    f7fefe46    ..F.    BL       TaskHandler ; 0x8000f0c
        0x08002280:    e7fc        ..      B        0x800227c ; main + 10
        0x08002282:    0000        ..      MOVS     r0,r0
    i.nvic_irq_enable
    nvic_irq_enable
        0x08002284:    e92d41f0    -..A    PUSH     {r4-r8,lr}
        0x08002288:    4603        .F      MOV      r3,r0
        0x0800228a:    460d        .F      MOV      r5,r1
        0x0800228c:    4616        .F      MOV      r6,r2
        0x0800228e:    2400        .$      MOVS     r4,#0
        0x08002290:    2700        .'      MOVS     r7,#0
        0x08002292:    46a0        .F      MOV      r8,r4
        0x08002294:    482a        *H      LDR      r0,[pc,#168] ; [0x8002340] = 0xe000ed0c
        0x08002296:    6800        .h      LDR      r0,[r0,#0]
        0x08002298:    f40060e0    ...`    AND      r0,r0,#0x700
        0x0800229c:    f5b06fe0    ...o    CMP      r0,#0x700
        0x080022a0:    d103        ..      BNE      0x80022aa ; nvic_irq_enable + 38
        0x080022a2:    bf00        ..      NOP      
        0x080022a4:    f04f0804    O...    MOV      r8,#4
        0x080022a8:    e030        0.      B        0x800230c ; nvic_irq_enable + 136
        0x080022aa:    4825        %H      LDR      r0,[pc,#148] ; [0x8002340] = 0xe000ed0c
        0x080022ac:    6800        .h      LDR      r0,[r0,#0]
        0x080022ae:    f40060e0    ...`    AND      r0,r0,#0x700
        0x080022b2:    f5b06fc0    ...o    CMP      r0,#0x600
        0x080022b6:    d103        ..      BNE      0x80022c0 ; nvic_irq_enable + 60
        0x080022b8:    2701        .'      MOVS     r7,#1
        0x080022ba:    f04f0803    O...    MOV      r8,#3
        0x080022be:    e025        %.      B        0x800230c ; nvic_irq_enable + 136
        0x080022c0:    481f        .H      LDR      r0,[pc,#124] ; [0x8002340] = 0xe000ed0c
        0x080022c2:    6800        .h      LDR      r0,[r0,#0]
        0x080022c4:    f40060e0    ...`    AND      r0,r0,#0x700
        0x080022c8:    f5b06fa0    ...o    CMP      r0,#0x500
        0x080022cc:    d102        ..      BNE      0x80022d4 ; nvic_irq_enable + 80
        0x080022ce:    2702        .'      MOVS     r7,#2
        0x080022d0:    46b8        .F      MOV      r8,r7
        0x080022d2:    e01b        ..      B        0x800230c ; nvic_irq_enable + 136
        0x080022d4:    481a        .H      LDR      r0,[pc,#104] ; [0x8002340] = 0xe000ed0c
        0x080022d6:    6800        .h      LDR      r0,[r0,#0]
        0x080022d8:    f40060e0    ...`    AND      r0,r0,#0x700
        0x080022dc:    f5b06f80    ...o    CMP      r0,#0x400
        0x080022e0:    d103        ..      BNE      0x80022ea ; nvic_irq_enable + 102
        0x080022e2:    2703        .'      MOVS     r7,#3
        0x080022e4:    f04f0801    O...    MOV      r8,#1
        0x080022e8:    e010        ..      B        0x800230c ; nvic_irq_enable + 136
        0x080022ea:    4815        .H      LDR      r0,[pc,#84] ; [0x8002340] = 0xe000ed0c
        0x080022ec:    6800        .h      LDR      r0,[r0,#0]
        0x080022ee:    f40060e0    ...`    AND      r0,r0,#0x700
        0x080022f2:    f5b07f40    ..@.    CMP      r0,#0x300
        0x080022f6:    d103        ..      BNE      0x8002300 ; nvic_irq_enable + 124
        0x080022f8:    2704        .'      MOVS     r7,#4
        0x080022fa:    f04f0800    O...    MOV      r8,#0
        0x080022fe:    e005        ..      B        0x800230c ; nvic_irq_enable + 136
        0x08002300:    f44f60a0    O..`    MOV      r0,#0x500
        0x08002304:    f000f820    .. .    BL       nvic_priority_group_set ; 0x8002348
        0x08002308:    2702        .'      MOVS     r7,#2
        0x0800230a:    46b8        .F      MOV      r8,r7
        0x0800230c:    f1c70004    ....    RSB      r0,r7,#4
        0x08002310:    fa05f400    ....    LSL      r4,r5,r0
        0x08002314:    f1c80104    ....    RSB      r1,r8,#4
        0x08002318:    200f        .       MOVS     r0,#0xf
        0x0800231a:    40c8        .@      LSRS     r0,r0,r1
        0x0800231c:    4030        0@      ANDS     r0,r0,r6
        0x0800231e:    4304        .C      ORRS     r4,r4,r0
        0x08002320:    0124        $.      LSLS     r4,r4,#4
        0x08002322:    4808        .H      LDR      r0,[pc,#32] ; [0x8002344] = 0xe000e400
        0x08002324:    54c4        .T      STRB     r4,[r0,r3]
        0x08002326:    f003011f    ....    AND      r1,r3,#0x1f
        0x0800232a:    2001        .       MOVS     r0,#1
        0x0800232c:    4088        .@      LSLS     r0,r0,r1
        0x0800232e:    1159        Y.      ASRS     r1,r3,#5
        0x08002330:    0089        ..      LSLS     r1,r1,#2
        0x08002332:    f10121e0    ...!    ADD      r1,r1,#0xe000e000
        0x08002336:    f8c10100    ....    STR      r0,[r1,#0x100]
        0x0800233a:    e8bd81f0    ....    POP      {r4-r8,pc}
    $d
        0x0800233e:    0000        ..      DCW    0
        0x08002340:    e000ed0c    ....    DCD    3758157068
        0x08002344:    e000e400    ....    DCD    3758154752
    $t
    i.nvic_priority_group_set
    nvic_priority_group_set
        0x08002348:    4902        .I      LDR      r1,[pc,#8] ; [0x8002354] = 0x5fa0000
        0x0800234a:    4301        .C      ORRS     r1,r1,r0
        0x0800234c:    4a02        .J      LDR      r2,[pc,#8] ; [0x8002358] = 0xe000ed0c
        0x0800234e:    6011        .`      STR      r1,[r2,#0]
        0x08002350:    4770        pG      BX       lr
    $d
        0x08002352:    0000        ..      DCW    0
        0x08002354:    05fa0000    ....    DCD    100270080
        0x08002358:    e000ed0c    ....    DCD    3758157068
    $t
    i.pmu_backup_write_enable
    pmu_backup_write_enable
        0x0800235c:    4803        .H      LDR      r0,[pc,#12] ; [0x800236c] = 0x40007000
        0x0800235e:    6800        .h      LDR      r0,[r0,#0]
        0x08002360:    f4407080    @..p    ORR      r0,r0,#0x100
        0x08002364:    4901        .I      LDR      r1,[pc,#4] ; [0x800236c] = 0x40007000
        0x08002366:    6008        .`      STR      r0,[r1,#0]
        0x08002368:    4770        pG      BX       lr
    $d
        0x0800236a:    0000        ..      DCW    0
        0x0800236c:    40007000    .p.@    DCD    1073770496
    $t
    i.prveMBError2Exception
    prveMBError2Exception
        0x08002370:    4601        .F      MOV      r1,r0
        0x08002372:    b121        !.      CBZ      r1,0x800237e ; prveMBError2Exception + 14
        0x08002374:    2901        .)      CMP      r1,#1
        0x08002376:    d004        ..      BEQ      0x8002382 ; prveMBError2Exception + 18
        0x08002378:    2907        .)      CMP      r1,#7
        0x0800237a:    d106        ..      BNE      0x800238a ; prveMBError2Exception + 26
        0x0800237c:    e003        ..      B        0x8002386 ; prveMBError2Exception + 22
        0x0800237e:    2000        .       MOVS     r0,#0
        0x08002380:    e005        ..      B        0x800238e ; prveMBError2Exception + 30
        0x08002382:    2002        .       MOVS     r0,#2
        0x08002384:    e003        ..      B        0x800238e ; prveMBError2Exception + 30
        0x08002386:    2006        .       MOVS     r0,#6
        0x08002388:    e001        ..      B        0x800238e ; prveMBError2Exception + 30
        0x0800238a:    2004        .       MOVS     r0,#4
        0x0800238c:    bf00        ..      NOP      
        0x0800238e:    bf00        ..      NOP      
        0x08002390:    4770        pG      BX       lr
        0x08002392:    0000        ..      MOVS     r0,r0
    i.prvvTIMERExpiredISR
    prvvTIMERExpiredISR
        0x08002394:    b510        ..      PUSH     {r4,lr}
        0x08002396:    4802        .H      LDR      r0,[pc,#8] ; [0x80023a0] = 0x20000088
        0x08002398:    6800        .h      LDR      r0,[r0,#0]
        0x0800239a:    4780        .G      BLX      r0
        0x0800239c:    bd10        ..      POP      {r4,pc}
    $d
        0x0800239e:    0000        ..      DCW    0
        0x080023a0:    20000088    ...     DCD    536871048
    $t
    i.prvvUARTRxISR
    prvvUARTRxISR
        0x080023a4:    b510        ..      PUSH     {r4,lr}
        0x080023a6:    4802        .H      LDR      r0,[pc,#8] ; [0x80023b0] = 0x20000080
        0x080023a8:    6800        .h      LDR      r0,[r0,#0]
        0x080023aa:    4780        .G      BLX      r0
        0x080023ac:    bd10        ..      POP      {r4,pc}
    $d
        0x080023ae:    0000        ..      DCW    0
        0x080023b0:    20000080    ...     DCD    536871040
    $t
    i.prvvUARTTxReadyISR
    prvvUARTTxReadyISR
        0x080023b4:    b510        ..      PUSH     {r4,lr}
        0x080023b6:    4802        .H      LDR      r0,[pc,#8] ; [0x80023c0] = 0x20000084
        0x080023b8:    6800        .h      LDR      r0,[r0,#0]
        0x080023ba:    4780        .G      BLX      r0
        0x080023bc:    bd10        ..      POP      {r4,pc}
    $d
        0x080023be:    0000        ..      DCW    0
        0x080023c0:    20000084    ...     DCD    536871044
    $t
    i.rcu_adc_clock_config
    rcu_adc_clock_config
        0x080023c4:    4b18        .K      LDR      r3,[pc,#96] ; [0x8002428] = 0x40021000
        0x080023c6:    6859        Yh      LDR      r1,[r3,#4]
        0x080023c8:    4b18        .K      LDR      r3,[pc,#96] ; [0x800242c] = 0xefff3fff
        0x080023ca:    4019        .@      ANDS     r1,r1,r3
        0x080023cc:    4b16        .K      LDR      r3,[pc,#88] ; [0x8002428] = 0x40021000
        0x080023ce:    6ada        .j      LDR      r2,[r3,#0x2c]
        0x080023d0:    f0225200    "..R    BIC      r2,r2,#0x20000000
        0x080023d4:    280c        .(      CMP      r0,#0xc
        0x080023d6:    d220         .      BCS      0x800241a ; rcu_adc_clock_config + 86
        0x080023d8:    e8dff000    ....    TBB      [pc,r0]
    $d
        0x080023dc:    09080706    ....    DCD    151521030
        0x080023e0:    0d1f0c1f    ....    DCD    220138527
        0x080023e4:    18171615    ....    DCD    404166165
    $t
        0x080023e8:    bf00        ..      NOP      
        0x080023ea:    bf00        ..      NOP      
        0x080023ec:    bf00        ..      NOP      
        0x080023ee:    ea413180    A..1    ORR      r1,r1,r0,LSL #14
        0x080023f2:    e013        ..      B        0x800241c ; rcu_adc_clock_config + 88
        0x080023f4:    bf00        ..      NOP      
        0x080023f6:    f0200004     ...    BIC      r0,r0,#4
        0x080023fa:    f04f5380    O..S    MOV      r3,#0x10000000
        0x080023fe:    ea433380    C..3    ORR      r3,r3,r0,LSL #14
        0x08002402:    4319        .C      ORRS     r1,r1,r3
        0x08002404:    e00a        ..      B        0x800241c ; rcu_adc_clock_config + 88
        0x08002406:    bf00        ..      NOP      
        0x08002408:    bf00        ..      NOP      
        0x0800240a:    bf00        ..      NOP      
        0x0800240c:    f020000c     ...    BIC      r0,r0,#0xc
        0x08002410:    ea413180    A..1    ORR      r1,r1,r0,LSL #14
        0x08002414:    f0425200    B..R    ORR      r2,r2,#0x20000000
        0x08002418:    e000        ..      B        0x800241c ; rcu_adc_clock_config + 88
        0x0800241a:    bf00        ..      NOP      
        0x0800241c:    bf00        ..      NOP      
        0x0800241e:    4b02        .K      LDR      r3,[pc,#8] ; [0x8002428] = 0x40021000
        0x08002420:    6059        Y`      STR      r1,[r3,#4]
        0x08002422:    62da        .b      STR      r2,[r3,#0x2c]
        0x08002424:    4770        pG      BX       lr
    $d
        0x08002426:    0000        ..      DCW    0
        0x08002428:    40021000    ...@    DCD    1073876992
        0x0800242c:    efff3fff    .?..    DCD    4026482687
    $t
    i.rcu_bkp_reset_disable
    rcu_bkp_reset_disable
        0x08002430:    4803        .H      LDR      r0,[pc,#12] ; [0x8002440] = 0x40021000
        0x08002432:    6a00        .j      LDR      r0,[r0,#0x20]
        0x08002434:    f4203080     ..0    BIC      r0,r0,#0x10000
        0x08002438:    4901        .I      LDR      r1,[pc,#4] ; [0x8002440] = 0x40021000
        0x0800243a:    6208        .b      STR      r0,[r1,#0x20]
        0x0800243c:    4770        pG      BX       lr
    $d
        0x0800243e:    0000        ..      DCW    0
        0x08002440:    40021000    ...@    DCD    1073876992
    $t
    i.rcu_bkp_reset_enable
    rcu_bkp_reset_enable
        0x08002444:    4803        .H      LDR      r0,[pc,#12] ; [0x8002454] = 0x40021000
        0x08002446:    6a00        .j      LDR      r0,[r0,#0x20]
        0x08002448:    f4403080    @..0    ORR      r0,r0,#0x10000
        0x0800244c:    4901        .I      LDR      r1,[pc,#4] ; [0x8002454] = 0x40021000
        0x0800244e:    6208        .b      STR      r0,[r1,#0x20]
        0x08002450:    4770        pG      BX       lr
    $d
        0x08002452:    0000        ..      DCW    0
        0x08002454:    40021000    ...@    DCD    1073876992
    $t
    i.rcu_clock_freq_get
    rcu_clock_freq_get
        0x08002458:    e92d4ff0    -..O    PUSH     {r4-r11,lr}
        0x0800245c:    b08c        ..      SUB      sp,sp,#0x30
        0x0800245e:    4607        .F      MOV      r7,r0
        0x08002460:    2000        .       MOVS     r0,#0
        0x08002462:    900a        ..      STR      r0,[sp,#0x28]
        0x08002464:    a04a        J.      ADR      r0,{pc}+0x12c ; 0x8002590
        0x08002466:    e8904c00    ...L    LDM      r0,{r10,r11,lr}
        0x0800246a:    68c0        .h      LDR      r0,[r0,#0xc]
        0x0800246c:    e9cdbe05    ....    STRD     r11,lr,[sp,#0x14]
        0x08002470:    f8cda010    ....    STR      r10,[sp,#0x10]
        0x08002474:    9007        ..      STR      r0,[sp,#0x1c]
        0x08002476:    f20f1a1c    ....    ADR.W    r10,{pc}+0x11e ; 0x8002594
        0x0800247a:    e9da0a00    ....    LDRD     r0,r10,[r10,#0]
        0x0800247e:    e9cd0a02    ....    STRD     r0,r10,[sp,#8]
        0x08002482:    f20f1a10    ....    ADR.W    r10,{pc}+0x112 ; 0x8002594
        0x08002486:    e9da0a00    ....    LDRD     r0,r10,[r10,#0]
        0x0800248a:    e9cd0a00    ....    STRD     r0,r10,[sp,#0]
        0x0800248e:    4844        DH      LDR      r0,[pc,#272] ; [0x80025a0] = 0x40021000
        0x08002490:    6840        @h      LDR      r0,[r0,#4]
        0x08002492:    f3c00081    ....    UBFX     r0,r0,#2,#2
        0x08002496:    900b        ..      STR      r0,[sp,#0x2c]
        0x08002498:    980b        ..      LDR      r0,[sp,#0x2c]
        0x0800249a:    b120         .      CBZ      r0,0x80024a6 ; rcu_clock_freq_get + 78
        0x0800249c:    2801        .(      CMP      r0,#1
        0x0800249e:    d004        ..      BEQ      0x80024aa ; rcu_clock_freq_get + 82
        0x080024a0:    2802        .(      CMP      r0,#2
        0x080024a2:    d13f        ?.      BNE      0x8002524 ; rcu_clock_freq_get + 204
        0x080024a4:    e003        ..      B        0x80024ae ; rcu_clock_freq_get + 86
        0x080024a6:    4a3f        ?J      LDR      r2,[pc,#252] ; [0x80025a4] = 0x7a1200
        0x080024a8:    e03e        >.      B        0x8002528 ; rcu_clock_freq_get + 208
        0x080024aa:    4a3e        >J      LDR      r2,[pc,#248] ; [0x80025a4] = 0x7a1200
        0x080024ac:    e03c        <.      B        0x8002528 ; rcu_clock_freq_get + 208
        0x080024ae:    483c        <H      LDR      r0,[pc,#240] ; [0x80025a0] = 0x40021000
        0x080024b0:    6840        @h      LDR      r0,[r0,#4]
        0x080024b2:    f4003c80    ...<    AND      r12,r0,#0x10000
        0x080024b6:    f5bc3f80    ...?    CMP      r12,#0x10000
        0x080024ba:    d112        ..      BNE      0x80024e2 ; rcu_clock_freq_get + 138
        0x080024bc:    4838        8H      LDR      r0,[pc,#224] ; [0x80025a0] = 0x40021000
        0x080024be:    6ac0        .j      LDR      r0,[r0,#0x2c]
        0x080024c0:    f0004880    ...H    AND      r8,r0,#0x40000000
        0x080024c4:    f1b80f00    ....    CMP      r8,#0
        0x080024c8:    d101        ..      BNE      0x80024ce ; rcu_clock_freq_get + 118
        0x080024ca:    4b36        6K      LDR      r3,[pc,#216] ; [0x80025a4] = 0x7a1200
        0x080024cc:    e000        ..      B        0x80024d0 ; rcu_clock_freq_get + 120
        0x080024ce:    4b36        6K      LDR      r3,[pc,#216] ; [0x80025a8] = 0x2dc6c00
        0x080024d0:    4833        3H      LDR      r0,[pc,#204] ; [0x80025a0] = 0x40021000
        0x080024d2:    6840        @h      LDR      r0,[r0,#4]
        0x080024d4:    f4003900    ...9    AND      r9,r0,#0x20000
        0x080024d8:    f5b93f00    ...?    CMP      r9,#0x20000
        0x080024dc:    d102        ..      BNE      0x80024e4 ; rcu_clock_freq_get + 140
        0x080024de:    085b        [.      LSRS     r3,r3,#1
        0x080024e0:    e000        ..      B        0x80024e4 ; rcu_clock_freq_get + 140
        0x080024e2:    4b32        2K      LDR      r3,[pc,#200] ; [0x80025ac] = 0x3d0900
        0x080024e4:    482e        .H      LDR      r0,[pc,#184] ; [0x80025a0] = 0x40021000
        0x080024e6:    6840        @h      LDR      r0,[r0,#4]
        0x080024e8:    f3c04183    ...A    UBFX     r1,r0,#18,#4
        0x080024ec:    482c        ,H      LDR      r0,[pc,#176] ; [0x80025a0] = 0x40021000
        0x080024ee:    6840        @h      LDR      r0,[r0,#4]
        0x080024f0:    f0006000    ...`    AND      r0,r0,#0x8000000
        0x080024f4:    b108        ..      CBZ      r0,0x80024fa ; rcu_clock_freq_get + 162
        0x080024f6:    f0410110    A...    ORR      r1,r1,#0x10
        0x080024fa:    4829        )H      LDR      r0,[pc,#164] ; [0x80025a0] = 0x40021000
        0x080024fc:    6840        @h      LDR      r0,[r0,#4]
        0x080024fe:    f0004080    ...@    AND      r0,r0,#0x40000000
        0x08002502:    b108        ..      CBZ      r0,0x8002508 ; rcu_clock_freq_get + 176
        0x08002504:    f0410120    A. .    ORR      r1,r1,#0x20
        0x08002508:    290f        .)      CMP      r1,#0xf
        0x0800250a:    d201        ..      BCS      0x8002510 ; rcu_clock_freq_get + 184
        0x0800250c:    1c89        ..      ADDS     r1,r1,#2
        0x0800250e:    e006        ..      B        0x800251e ; rcu_clock_freq_get + 198
        0x08002510:    290f        .)      CMP      r1,#0xf
        0x08002512:    d303        ..      BCC      0x800251c ; rcu_clock_freq_get + 196
        0x08002514:    293e        >)      CMP      r1,#0x3e
        0x08002516:    d801        ..      BHI      0x800251c ; rcu_clock_freq_get + 196
        0x08002518:    1c49        I.      ADDS     r1,r1,#1
        0x0800251a:    e000        ..      B        0x800251e ; rcu_clock_freq_get + 198
        0x0800251c:    213f        ?!      MOVS     r1,#0x3f
        0x0800251e:    fb03f201    ....    MUL      r2,r3,r1
        0x08002522:    e001        ..      B        0x8002528 ; rcu_clock_freq_get + 208
        0x08002524:    4a1f        .J      LDR      r2,[pc,#124] ; [0x80025a4] = 0x7a1200
        0x08002526:    bf00        ..      NOP      
        0x08002528:    bf00        ..      NOP      
        0x0800252a:    481d        .H      LDR      r0,[pc,#116] ; [0x80025a0] = 0x40021000
        0x0800252c:    6840        @h      LDR      r0,[r0,#4]
        0x0800252e:    f3c01503    ....    UBFX     r5,r0,#4,#4
        0x08002532:    a804        ..      ADD      r0,sp,#0x10
        0x08002534:    5d46        F]      LDRB     r6,[r0,r5]
        0x08002536:    fa22f406    "...    LSR      r4,r2,r6
        0x0800253a:    4819        .H      LDR      r0,[pc,#100] ; [0x80025a0] = 0x40021000
        0x0800253c:    6840        @h      LDR      r0,[r0,#4]
        0x0800253e:    f3c02502    ...%    UBFX     r5,r0,#8,#3
        0x08002542:    a802        ..      ADD      r0,sp,#8
        0x08002544:    5d46        F]      LDRB     r6,[r0,r5]
        0x08002546:    fa24f006    $...    LSR      r0,r4,r6
        0x0800254a:    9009        ..      STR      r0,[sp,#0x24]
        0x0800254c:    4814        .H      LDR      r0,[pc,#80] ; [0x80025a0] = 0x40021000
        0x0800254e:    6840        @h      LDR      r0,[r0,#4]
        0x08002550:    f3c025c2    ...%    UBFX     r5,r0,#11,#3
        0x08002554:    f81d6005    ...`    LDRB     r6,[sp,r5]
        0x08002558:    fa24f006    $...    LSR      r0,r4,r6
        0x0800255c:    9008        ..      STR      r0,[sp,#0x20]
        0x0800255e:    b137        7.      CBZ      r7,0x800256e ; rcu_clock_freq_get + 278
        0x08002560:    2f01        ./      CMP      r7,#1
        0x08002562:    d006        ..      BEQ      0x8002572 ; rcu_clock_freq_get + 282
        0x08002564:    2f02        ./      CMP      r7,#2
        0x08002566:    d006        ..      BEQ      0x8002576 ; rcu_clock_freq_get + 286
        0x08002568:    2f03        ./      CMP      r7,#3
        0x0800256a:    d10a        ..      BNE      0x8002582 ; rcu_clock_freq_get + 298
        0x0800256c:    e006        ..      B        0x800257c ; rcu_clock_freq_get + 292
        0x0800256e:    920a        ..      STR      r2,[sp,#0x28]
        0x08002570:    e008        ..      B        0x8002584 ; rcu_clock_freq_get + 300
        0x08002572:    940a        ..      STR      r4,[sp,#0x28]
        0x08002574:    e006        ..      B        0x8002584 ; rcu_clock_freq_get + 300
        0x08002576:    9809        ..      LDR      r0,[sp,#0x24]
        0x08002578:    900a        ..      STR      r0,[sp,#0x28]
        0x0800257a:    e003        ..      B        0x8002584 ; rcu_clock_freq_get + 300
        0x0800257c:    9808        ..      LDR      r0,[sp,#0x20]
        0x0800257e:    900a        ..      STR      r0,[sp,#0x28]
        0x08002580:    e000        ..      B        0x8002584 ; rcu_clock_freq_get + 300
        0x08002582:    bf00        ..      NOP      
        0x08002584:    bf00        ..      NOP      
        0x08002586:    980a        ..      LDR      r0,[sp,#0x28]
        0x08002588:    b00c        ..      ADD      sp,sp,#0x30
        0x0800258a:    e8bd8ff0    ....    POP      {r4-r11,pc}
    $d
        0x0800258e:    0000        ..      DCW    0
        0x08002590:    00000000    ....    DCD    0
        0x08002594:    00000000    ....    DCD    0
        0x08002598:    04030201    ....    DCD    67305985
        0x0800259c:    09080706    ....    DCD    151521030
        0x080025a0:    40021000    ...@    DCD    1073876992
        0x080025a4:    007a1200    ..z.    DCD    8000000
        0x080025a8:    02dc6c00    .l..    DCD    48000000
        0x080025ac:    003d0900    ..=.    DCD    4000000
    $t
    i.rcu_flag_get
    rcu_flag_get
        0x080025b0:    4601        .F      MOV      r1,r0
        0x080025b2:    4a07        .J      LDR      r2,[pc,#28] ; [0x80025d0] = 0x40021000
        0x080025b4:    eb021091    ....    ADD      r0,r2,r1,LSR #6
        0x080025b8:    6800        .h      LDR      r0,[r0,#0]
        0x080025ba:    f001031f    ....    AND      r3,r1,#0x1f
        0x080025be:    2201        ."      MOVS     r2,#1
        0x080025c0:    409a        .@      LSLS     r2,r2,r3
        0x080025c2:    4010        .@      ANDS     r0,r0,r2
        0x080025c4:    b108        ..      CBZ      r0,0x80025ca ; rcu_flag_get + 26
        0x080025c6:    2001        .       MOVS     r0,#1
        0x080025c8:    4770        pG      BX       lr
        0x080025ca:    2000        .       MOVS     r0,#0
        0x080025cc:    e7fc        ..      B        0x80025c8 ; rcu_flag_get + 24
    $d
        0x080025ce:    0000        ..      DCW    0
        0x080025d0:    40021000    ...@    DCD    1073876992
    $t
    i.rcu_osci_on
    rcu_osci_on
        0x080025d4:    4a06        .J      LDR      r2,[pc,#24] ; [0x80025f0] = 0x40021000
        0x080025d6:    eb021190    ....    ADD      r1,r2,r0,LSR #6
        0x080025da:    6809        .h      LDR      r1,[r1,#0]
        0x080025dc:    f000031f    ....    AND      r3,r0,#0x1f
        0x080025e0:    2201        ."      MOVS     r2,#1
        0x080025e2:    409a        .@      LSLS     r2,r2,r3
        0x080025e4:    4311        .C      ORRS     r1,r1,r2
        0x080025e6:    4b02        .K      LDR      r3,[pc,#8] ; [0x80025f0] = 0x40021000
        0x080025e8:    eb031290    ....    ADD      r2,r3,r0,LSR #6
        0x080025ec:    6011        .`      STR      r1,[r2,#0]
        0x080025ee:    4770        pG      BX       lr
    $d
        0x080025f0:    40021000    ...@    DCD    1073876992
    $t
    i.rcu_osci_stab_wait
    rcu_osci_stab_wait
        0x080025f4:    b5f0        ..      PUSH     {r4-r7,lr}
        0x080025f6:    4606        .F      MOV      r6,r0
        0x080025f8:    2400        .$      MOVS     r4,#0
        0x080025fa:    2700        .'      MOVS     r7,#0
        0x080025fc:    2500        .%      MOVS     r5,#0
        0x080025fe:    f5b66f00    ...o    CMP      r6,#0x800
        0x08002602:    d020         .      BEQ      0x8002646 ; rcu_osci_stab_wait + 82
        0x08002604:    dc05        ..      BGT      0x8002612 ; rcu_osci_stab_wait + 30
        0x08002606:    b38e        ..      CBZ      r6,0x800266c ; rcu_osci_stab_wait + 120
        0x08002608:    2e10        ..      CMP      r6,#0x10
        0x0800260a:    d00b        ..      BEQ      0x8002624 ; rcu_osci_stab_wait + 48
        0x0800260c:    2e18        ..      CMP      r6,#0x18
        0x0800260e:    d173        s.      BNE      0x80026f8 ; rcu_osci_stab_wait + 260
        0x08002610:    e061        a.      B        0x80026d6 ; rcu_osci_stab_wait + 226
        0x08002612:    f5b66f10    ...o    CMP      r6,#0x900
        0x08002616:    d04c        L.      BEQ      0x80026b2 ; rcu_osci_stab_wait + 190
        0x08002618:    f5a65040    ..@P    SUB      r0,r6,#0x3000
        0x0800261c:    3810        .8      SUBS     r0,r0,#0x10
        0x0800261e:    2800        .(      CMP      r0,#0
        0x08002620:    d16a        j.      BNE      0x80026f8 ; rcu_osci_stab_wait + 260
        0x08002622:    e034        4.      B        0x800268e ; rcu_osci_stab_wait + 154
        0x08002624:    e004        ..      B        0x8002630 ; rcu_osci_stab_wait + 60
        0x08002626:    2011        .       MOVS     r0,#0x11
        0x08002628:    f7ffffc2    ....    BL       rcu_flag_get ; 0x80025b0
        0x0800262c:    4605        .F      MOV      r5,r0
        0x0800262e:    1c64        d.      ADDS     r4,r4,#1
        0x08002630:    b91d        ..      CBNZ     r5,0x800263a ; rcu_osci_stab_wait + 70
        0x08002632:    f64f70ff    O..p    MOV      r0,#0xffff
        0x08002636:    4284        .B      CMP      r4,r0
        0x08002638:    d1f5        ..      BNE      0x8002626 ; rcu_osci_stab_wait + 50
        0x0800263a:    2011        .       MOVS     r0,#0x11
        0x0800263c:    f7ffffb8    ....    BL       rcu_flag_get ; 0x80025b0
        0x08002640:    b100        ..      CBZ      r0,0x8002644 ; rcu_osci_stab_wait + 80
        0x08002642:    2701        .'      MOVS     r7,#1
        0x08002644:    e059        Y.      B        0x80026fa ; rcu_osci_stab_wait + 262
        0x08002646:    e005        ..      B        0x8002654 ; rcu_osci_stab_wait + 96
        0x08002648:    f6400001    @...    MOV      r0,#0x801
        0x0800264c:    f7ffffb0    ....    BL       rcu_flag_get ; 0x80025b0
        0x08002650:    4605        .F      MOV      r5,r0
        0x08002652:    1c64        d.      ADDS     r4,r4,#1
        0x08002654:    b91d        ..      CBNZ     r5,0x800265e ; rcu_osci_stab_wait + 106
        0x08002656:    f06f407c    o.|@    MVN      r0,#0xfc000000
        0x0800265a:    4284        .B      CMP      r4,r0
        0x0800265c:    d1f4        ..      BNE      0x8002648 ; rcu_osci_stab_wait + 84
        0x0800265e:    f6400001    @...    MOV      r0,#0x801
        0x08002662:    f7ffffa5    ....    BL       rcu_flag_get ; 0x80025b0
        0x08002666:    b100        ..      CBZ      r0,0x800266a ; rcu_osci_stab_wait + 118
        0x08002668:    2701        .'      MOVS     r7,#1
        0x0800266a:    e046        F.      B        0x80026fa ; rcu_osci_stab_wait + 262
        0x0800266c:    e7ff        ..      B        0x800266e ; rcu_osci_stab_wait + 122
        0x0800266e:    e004        ..      B        0x800267a ; rcu_osci_stab_wait + 134
        0x08002670:    2001        .       MOVS     r0,#1
        0x08002672:    f7ffff9d    ....    BL       rcu_flag_get ; 0x80025b0
        0x08002676:    4605        .F      MOV      r5,r0
        0x08002678:    1c64        d.      ADDS     r4,r4,#1
        0x0800267a:    b915        ..      CBNZ     r5,0x8002682 ; rcu_osci_stab_wait + 142
        0x0800267c:    f5b46fa0    ...o    CMP      r4,#0x500
        0x08002680:    d1f6        ..      BNE      0x8002670 ; rcu_osci_stab_wait + 124
        0x08002682:    2001        .       MOVS     r0,#1
        0x08002684:    f7ffff94    ....    BL       rcu_flag_get ; 0x80025b0
        0x08002688:    b100        ..      CBZ      r0,0x800268c ; rcu_osci_stab_wait + 152
        0x0800268a:    2701        .'      MOVS     r7,#1
        0x0800268c:    e035        5.      B        0x80026fa ; rcu_osci_stab_wait + 262
        0x0800268e:    e005        ..      B        0x800269c ; rcu_osci_stab_wait + 168
        0x08002690:    f2430011    C...    MOV      r0,#0x3011
        0x08002694:    f7ffff8c    ....    BL       rcu_flag_get ; 0x80025b0
        0x08002698:    4605        .F      MOV      r5,r0
        0x0800269a:    1c64        d.      ADDS     r4,r4,#1
        0x0800269c:    b915        ..      CBNZ     r5,0x80026a4 ; rcu_osci_stab_wait + 176
        0x0800269e:    4818        .H      LDR      r0,[pc,#96] ; [0x8002700] = 0xfffff
        0x080026a0:    4284        .B      CMP      r4,r0
        0x080026a2:    d1f5        ..      BNE      0x8002690 ; rcu_osci_stab_wait + 156
        0x080026a4:    f2430011    C...    MOV      r0,#0x3011
        0x080026a8:    f7ffff82    ....    BL       rcu_flag_get ; 0x80025b0
        0x080026ac:    b100        ..      CBZ      r0,0x80026b0 ; rcu_osci_stab_wait + 188
        0x080026ae:    2701        .'      MOVS     r7,#1
        0x080026b0:    e023        #.      B        0x80026fa ; rcu_osci_stab_wait + 262
        0x080026b2:    e005        ..      B        0x80026c0 ; rcu_osci_stab_wait + 204
        0x080026b4:    f6401001    @...    MOV      r0,#0x901
        0x080026b8:    f7ffff7a    ..z.    BL       rcu_flag_get ; 0x80025b0
        0x080026bc:    4605        .F      MOV      r5,r0
        0x080026be:    1c64        d.      ADDS     r4,r4,#1
        0x080026c0:    b915        ..      CBNZ     r5,0x80026c8 ; rcu_osci_stab_wait + 212
        0x080026c2:    480f        .H      LDR      r0,[pc,#60] ; [0x8002700] = 0xfffff
        0x080026c4:    4284        .B      CMP      r4,r0
        0x080026c6:    d1f5        ..      BNE      0x80026b4 ; rcu_osci_stab_wait + 192
        0x080026c8:    f6401001    @...    MOV      r0,#0x901
        0x080026cc:    f7ffff70    ..p.    BL       rcu_flag_get ; 0x80025b0
        0x080026d0:    b100        ..      CBZ      r0,0x80026d4 ; rcu_osci_stab_wait + 224
        0x080026d2:    2701        .'      MOVS     r7,#1
        0x080026d4:    e011        ..      B        0x80026fa ; rcu_osci_stab_wait + 262
        0x080026d6:    e004        ..      B        0x80026e2 ; rcu_osci_stab_wait + 238
        0x080026d8:    2019        .       MOVS     r0,#0x19
        0x080026da:    f7ffff69    ..i.    BL       rcu_flag_get ; 0x80025b0
        0x080026de:    4605        .F      MOV      r5,r0
        0x080026e0:    1c64        d.      ADDS     r4,r4,#1
        0x080026e2:    b915        ..      CBNZ     r5,0x80026ea ; rcu_osci_stab_wait + 246
        0x080026e4:    4806        .H      LDR      r0,[pc,#24] ; [0x8002700] = 0xfffff
        0x080026e6:    4284        .B      CMP      r4,r0
        0x080026e8:    d1f6        ..      BNE      0x80026d8 ; rcu_osci_stab_wait + 228
        0x080026ea:    2019        .       MOVS     r0,#0x19
        0x080026ec:    f7ffff60    ..`.    BL       rcu_flag_get ; 0x80025b0
        0x080026f0:    b100        ..      CBZ      r0,0x80026f4 ; rcu_osci_stab_wait + 256
        0x080026f2:    2701        .'      MOVS     r7,#1
        0x080026f4:    e001        ..      B        0x80026fa ; rcu_osci_stab_wait + 262
        0x080026f6:    e7ff        ..      B        0x80026f8 ; rcu_osci_stab_wait + 260
        0x080026f8:    bf00        ..      NOP      
        0x080026fa:    bf00        ..      NOP      
        0x080026fc:    4638        8F      MOV      r0,r7
        0x080026fe:    bdf0        ..      POP      {r4-r7,pc}
    $d
        0x08002700:    000fffff    ....    DCD    1048575
    $t
    i.rcu_periph_clock_enable
    rcu_periph_clock_enable
        0x08002704:    4a06        .J      LDR      r2,[pc,#24] ; [0x8002720] = 0x40021000
        0x08002706:    eb021190    ....    ADD      r1,r2,r0,LSR #6
        0x0800270a:    6809        .h      LDR      r1,[r1,#0]
        0x0800270c:    f000031f    ....    AND      r3,r0,#0x1f
        0x08002710:    2201        ."      MOVS     r2,#1
        0x08002712:    409a        .@      LSLS     r2,r2,r3
        0x08002714:    4311        .C      ORRS     r1,r1,r2
        0x08002716:    4b02        .K      LDR      r3,[pc,#8] ; [0x8002720] = 0x40021000
        0x08002718:    eb031290    ....    ADD      r2,r3,r0,LSR #6
        0x0800271c:    6011        .`      STR      r1,[r2,#0]
        0x0800271e:    4770        pG      BX       lr
    $d
        0x08002720:    40021000    ...@    DCD    1073876992
    $t
    i.rcu_periph_reset_disable
    rcu_periph_reset_disable
        0x08002724:    4a06        .J      LDR      r2,[pc,#24] ; [0x8002740] = 0x40021000
        0x08002726:    eb021190    ....    ADD      r1,r2,r0,LSR #6
        0x0800272a:    6809        .h      LDR      r1,[r1,#0]
        0x0800272c:    f000031f    ....    AND      r3,r0,#0x1f
        0x08002730:    2201        ."      MOVS     r2,#1
        0x08002732:    409a        .@      LSLS     r2,r2,r3
        0x08002734:    4391        .C      BICS     r1,r1,r2
        0x08002736:    4b02        .K      LDR      r3,[pc,#8] ; [0x8002740] = 0x40021000
        0x08002738:    eb031290    ....    ADD      r2,r3,r0,LSR #6
        0x0800273c:    6011        .`      STR      r1,[r2,#0]
        0x0800273e:    4770        pG      BX       lr
    $d
        0x08002740:    40021000    ...@    DCD    1073876992
    $t
    i.rcu_periph_reset_enable
    rcu_periph_reset_enable
        0x08002744:    4a06        .J      LDR      r2,[pc,#24] ; [0x8002760] = 0x40021000
        0x08002746:    eb021190    ....    ADD      r1,r2,r0,LSR #6
        0x0800274a:    6809        .h      LDR      r1,[r1,#0]
        0x0800274c:    f000031f    ....    AND      r3,r0,#0x1f
        0x08002750:    2201        ."      MOVS     r2,#1
        0x08002752:    409a        .@      LSLS     r2,r2,r3
        0x08002754:    4311        .C      ORRS     r1,r1,r2
        0x08002756:    4b02        .K      LDR      r3,[pc,#8] ; [0x8002760] = 0x40021000
        0x08002758:    eb031290    ....    ADD      r2,r3,r0,LSR #6
        0x0800275c:    6011        .`      STR      r1,[r2,#0]
        0x0800275e:    4770        pG      BX       lr
    $d
        0x08002760:    40021000    ...@    DCD    1073876992
    $t
    i.rcu_rtc_clock_config
    rcu_rtc_clock_config
        0x08002764:    4a04        .J      LDR      r2,[pc,#16] ; [0x8002778] = 0x40021000
        0x08002766:    6a11        .j      LDR      r1,[r2,#0x20]
        0x08002768:    f4217140    !.@q    BIC      r1,r1,#0x300
        0x0800276c:    ea410200    A...    ORR      r2,r1,r0
        0x08002770:    4b01        .K      LDR      r3,[pc,#4] ; [0x8002778] = 0x40021000
        0x08002772:    621a        .b      STR      r2,[r3,#0x20]
        0x08002774:    4770        pG      BX       lr
    $d
        0x08002776:    0000        ..      DCW    0
        0x08002778:    40021000    ...@    DCD    1073876992
    $t
    i.rtc_configuration_mode_enter
    rtc_configuration_mode_enter
        0x0800277c:    4803        .H      LDR      r0,[pc,#12] ; [0x800278c] = 0x40002804
        0x0800277e:    6800        .h      LDR      r0,[r0,#0]
        0x08002780:    f0400010    @...    ORR      r0,r0,#0x10
        0x08002784:    4901        .I      LDR      r1,[pc,#4] ; [0x800278c] = 0x40002804
        0x08002786:    6008        .`      STR      r0,[r1,#0]
        0x08002788:    4770        pG      BX       lr
    $d
        0x0800278a:    0000        ..      DCW    0
        0x0800278c:    40002804    .(.@    DCD    1073752068
    $t
    i.rtc_configuration_mode_exit
    rtc_configuration_mode_exit
        0x08002790:    4803        .H      LDR      r0,[pc,#12] ; [0x80027a0] = 0x40002804
        0x08002792:    6800        .h      LDR      r0,[r0,#0]
        0x08002794:    f0200010     ...    BIC      r0,r0,#0x10
        0x08002798:    4901        .I      LDR      r1,[pc,#4] ; [0x80027a0] = 0x40002804
        0x0800279a:    6008        .`      STR      r0,[r1,#0]
        0x0800279c:    4770        pG      BX       lr
    $d
        0x0800279e:    0000        ..      DCW    0
        0x080027a0:    40002804    .(.@    DCD    1073752068
    $t
    i.rtc_counter_set
    rtc_counter_set
        0x080027a4:    b500        ..      PUSH     {lr}
        0x080027a6:    4602        .F      MOV      r2,r0
        0x080027a8:    f7ffffe8    ....    BL       rtc_configuration_mode_enter ; 0x800277c
        0x080027ac:    0c10        ..      LSRS     r0,r2,#16
        0x080027ae:    4904        .I      LDR      r1,[pc,#16] ; [0x80027c0] = 0x40002818
        0x080027b0:    6008        .`      STR      r0,[r1,#0]
        0x080027b2:    b290        ..      UXTH     r0,r2
        0x080027b4:    1d09        ..      ADDS     r1,r1,#4
        0x080027b6:    6008        .`      STR      r0,[r1,#0]
        0x080027b8:    f7ffffea    ....    BL       rtc_configuration_mode_exit ; 0x8002790
        0x080027bc:    bd00        ..      POP      {pc}
    $d
        0x080027be:    0000        ..      DCW    0
        0x080027c0:    40002818    .(.@    DCD    1073752088
    $t
    i.rtc_lwoff_wait
    rtc_lwoff_wait
        0x080027c4:    bf00        ..      NOP      
        0x080027c6:    4803        .H      LDR      r0,[pc,#12] ; [0x80027d4] = 0x40002804
        0x080027c8:    6800        .h      LDR      r0,[r0,#0]
        0x080027ca:    f0000020    .. .    AND      r0,r0,#0x20
        0x080027ce:    2800        .(      CMP      r0,#0
        0x080027d0:    d0f9        ..      BEQ      0x80027c6 ; rtc_lwoff_wait + 2
        0x080027d2:    4770        pG      BX       lr
    $d
        0x080027d4:    40002804    .(.@    DCD    1073752068
    $t
    i.rtc_prescaler_set
    rtc_prescaler_set
        0x080027d8:    b500        ..      PUSH     {lr}
        0x080027da:    4602        .F      MOV      r2,r0
        0x080027dc:    f7ffffce    ....    BL       rtc_configuration_mode_enter ; 0x800277c
        0x080027e0:    f3c24003    ...@    UBFX     r0,r2,#16,#4
        0x080027e4:    4903        .I      LDR      r1,[pc,#12] ; [0x80027f4] = 0x40002808
        0x080027e6:    6008        .`      STR      r0,[r1,#0]
        0x080027e8:    b290        ..      UXTH     r0,r2
        0x080027ea:    1d09        ..      ADDS     r1,r1,#4
        0x080027ec:    6008        .`      STR      r0,[r1,#0]
        0x080027ee:    f7ffffcf    ....    BL       rtc_configuration_mode_exit ; 0x8002790
        0x080027f2:    bd00        ..      POP      {pc}
    $d
        0x080027f4:    40002808    .(.@    DCD    1073752072
    $t
    i.rtc_register_sync_wait
    rtc_register_sync_wait
        0x080027f8:    4806        .H      LDR      r0,[pc,#24] ; [0x8002814] = 0x40002804
        0x080027fa:    6800        .h      LDR      r0,[r0,#0]
        0x080027fc:    f0200008     ...    BIC      r0,r0,#8
        0x08002800:    4904        .I      LDR      r1,[pc,#16] ; [0x8002814] = 0x40002804
        0x08002802:    6008        .`      STR      r0,[r1,#0]
        0x08002804:    bf00        ..      NOP      
        0x08002806:    4803        .H      LDR      r0,[pc,#12] ; [0x8002814] = 0x40002804
        0x08002808:    6800        .h      LDR      r0,[r0,#0]
        0x0800280a:    f0000008    ....    AND      r0,r0,#8
        0x0800280e:    2800        .(      CMP      r0,#0
        0x08002810:    d0f9        ..      BEQ      0x8002806 ; rtc_register_sync_wait + 14
        0x08002812:    4770        pG      BX       lr
    $d
        0x08002814:    40002804    .(.@    DCD    1073752068
    $t
    i.spi_enable
    spi_enable
        0x08002818:    6801        .h      LDR      r1,[r0,#0]
        0x0800281a:    f0410140    A.@.    ORR      r1,r1,#0x40
        0x0800281e:    6001        .`      STR      r1,[r0,#0]
        0x08002820:    4770        pG      BX       lr
    i.spi_i2s_data_receive
    spi_i2s_data_receive
        0x08002822:    4601        .F      MOV      r1,r0
        0x08002824:    68c8        .h      LDR      r0,[r1,#0xc]
        0x08002826:    b280        ..      UXTH     r0,r0
        0x08002828:    4770        pG      BX       lr
    i.spi_i2s_data_transmit
    spi_i2s_data_transmit
        0x0800282a:    60c1        .`      STR      r1,[r0,#0xc]
        0x0800282c:    4770        pG      BX       lr
    i.spi_i2s_flag_get
    spi_i2s_flag_get
        0x0800282e:    4602        .F      MOV      r2,r0
        0x08002830:    6890        .h      LDR      r0,[r2,#8]
        0x08002832:    4008        .@      ANDS     r0,r0,r1
        0x08002834:    b108        ..      CBZ      r0,0x800283a ; spi_i2s_flag_get + 12
        0x08002836:    2001        .       MOVS     r0,#1
        0x08002838:    4770        pG      BX       lr
        0x0800283a:    2000        .       MOVS     r0,#0
        0x0800283c:    e7fc        ..      B        0x8002838 ; spi_i2s_flag_get + 10
    i.spi_init
    spi_init
        0x0800283e:    4602        .F      MOV      r2,r0
        0x08002840:    2000        .       MOVS     r0,#0
        0x08002842:    6810        .h      LDR      r0,[r2,#0]
        0x08002844:    f4005041    ..AP    AND      r0,r0,#0x3040
        0x08002848:    680b        .h      LDR      r3,[r1,#0]
        0x0800284a:    4318        .C      ORRS     r0,r0,r3
        0x0800284c:    684b        Kh      LDR      r3,[r1,#4]
        0x0800284e:    4318        .C      ORRS     r0,r0,r3
        0x08002850:    688b        .h      LDR      r3,[r1,#8]
        0x08002852:    4318        .C      ORRS     r0,r0,r3
        0x08002854:    68cb        .h      LDR      r3,[r1,#0xc]
        0x08002856:    4318        .C      ORRS     r0,r0,r3
        0x08002858:    690b        .i      LDR      r3,[r1,#0x10]
        0x0800285a:    4318        .C      ORRS     r0,r0,r3
        0x0800285c:    694b        Ki      LDR      r3,[r1,#0x14]
        0x0800285e:    4318        .C      ORRS     r0,r0,r3
        0x08002860:    698b        .i      LDR      r3,[r1,#0x18]
        0x08002862:    4318        .C      ORRS     r0,r0,r3
        0x08002864:    6010        .`      STR      r0,[r2,#0]
        0x08002866:    69d3        .i      LDR      r3,[r2,#0x1c]
        0x08002868:    f4236300    #..c    BIC      r3,r3,#0x800
        0x0800286c:    61d3        .a      STR      r3,[r2,#0x1c]
        0x0800286e:    4770        pG      BX       lr
    i.spi_struct_para_init
    spi_struct_para_init
        0x08002870:    2100        .!      MOVS     r1,#0
        0x08002872:    6001        .`      STR      r1,[r0,#0]
        0x08002874:    6041        A`      STR      r1,[r0,#4]
        0x08002876:    6081        .`      STR      r1,[r0,#8]
        0x08002878:    60c1        .`      STR      r1,[r0,#0xc]
        0x0800287a:    6141        Aa      STR      r1,[r0,#0x14]
        0x0800287c:    6181        .a      STR      r1,[r0,#0x18]
        0x0800287e:    6101        .a      STR      r1,[r0,#0x10]
        0x08002880:    4770        pG      BX       lr
        0x08002882:    0000        ..      MOVS     r0,r0
    i.system_clock_120m_hxtal
    system_clock_120m_hxtal
        0x08002884:    2000        .       MOVS     r0,#0
        0x08002886:    2100        .!      MOVS     r1,#0
        0x08002888:    4a3f        ?J      LDR      r2,[pc,#252] ; [0x8002988] = 0x40021000
        0x0800288a:    6812        .h      LDR      r2,[r2,#0]
        0x0800288c:    f4423280    B..2    ORR      r2,r2,#0x10000
        0x08002890:    4b3d        =K      LDR      r3,[pc,#244] ; [0x8002988] = 0x40021000
        0x08002892:    601a        .`      STR      r2,[r3,#0]
        0x08002894:    bf00        ..      NOP      
        0x08002896:    1c40        @.      ADDS     r0,r0,#1
        0x08002898:    4a3b        ;J      LDR      r2,[pc,#236] ; [0x8002988] = 0x40021000
        0x0800289a:    6812        .h      LDR      r2,[r2,#0]
        0x0800289c:    f4023100    ...1    AND      r1,r2,#0x20000
        0x080028a0:    b919        ..      CBNZ     r1,0x80028aa ; system_clock_120m_hxtal + 38
        0x080028a2:    f64f72ff    O..r    MOV      r2,#0xffff
        0x080028a6:    4290        .B      CMP      r0,r2
        0x080028a8:    d1f5        ..      BNE      0x8002896 ; system_clock_120m_hxtal + 18
        0x080028aa:    4a37        7J      LDR      r2,[pc,#220] ; [0x8002988] = 0x40021000
        0x080028ac:    6812        .h      LDR      r2,[r2,#0]
        0x080028ae:    f4023200    ...2    AND      r2,r2,#0x20000
        0x080028b2:    b90a        ..      CBNZ     r2,0x80028b8 ; system_clock_120m_hxtal + 52
        0x080028b4:    bf00        ..      NOP      
        0x080028b6:    e7fe        ..      B        0x80028b6 ; system_clock_120m_hxtal + 50
        0x080028b8:    4a33        3J      LDR      r2,[pc,#204] ; [0x8002988] = 0x40021000
        0x080028ba:    69d2        .i      LDR      r2,[r2,#0x1c]
        0x080028bc:    f0425280    B..R    ORR      r2,r2,#0x10000000
        0x080028c0:    4b31        1K      LDR      r3,[pc,#196] ; [0x8002988] = 0x40021000
        0x080028c2:    61da        .a      STR      r2,[r3,#0x1c]
        0x080028c4:    4a31        1J      LDR      r2,[pc,#196] ; [0x800298c] = 0x40007000
        0x080028c6:    6812        .h      LDR      r2,[r2,#0]
        0x080028c8:    f4424240    B.@B    ORR      r2,r2,#0xc000
        0x080028cc:    4b2f        /K      LDR      r3,[pc,#188] ; [0x800298c] = 0x40007000
        0x080028ce:    601a        .`      STR      r2,[r3,#0]
        0x080028d0:    4a2d        -J      LDR      r2,[pc,#180] ; [0x8002988] = 0x40021000
        0x080028d2:    6852        Rh      LDR      r2,[r2,#4]
        0x080028d4:    4b2c        ,K      LDR      r3,[pc,#176] ; [0x8002988] = 0x40021000
        0x080028d6:    605a        Z`      STR      r2,[r3,#4]
        0x080028d8:    461a        .F      MOV      r2,r3
        0x080028da:    6852        Rh      LDR      r2,[r2,#4]
        0x080028dc:    605a        Z`      STR      r2,[r3,#4]
        0x080028de:    461a        .F      MOV      r2,r3
        0x080028e0:    6852        Rh      LDR      r2,[r2,#4]
        0x080028e2:    f4426280    B..b    ORR      r2,r2,#0x400
        0x080028e6:    605a        Z`      STR      r2,[r3,#4]
        0x080028e8:    461a        .F      MOV      r2,r3
        0x080028ea:    6852        Rh      LDR      r2,[r2,#4]
        0x080028ec:    f4223240    ".@2    BIC      r2,r2,#0x30000
        0x080028f0:    605a        Z`      STR      r2,[r3,#4]
        0x080028f2:    461a        .F      MOV      r2,r3
        0x080028f4:    6852        Rh      LDR      r2,[r2,#4]
        0x080028f6:    f4423240    B.@2    ORR      r2,r2,#0x30000
        0x080028fa:    605a        Z`      STR      r2,[r3,#4]
        0x080028fc:    461a        .F      MOV      r2,r3
        0x080028fe:    6852        Rh      LDR      r2,[r2,#4]
        0x08002900:    4b23        #K      LDR      r3,[pc,#140] ; [0x8002990] = 0xb7c3ffff
        0x08002902:    401a        .@      ANDS     r2,r2,r3
        0x08002904:    4b20         K      LDR      r3,[pc,#128] ; [0x8002988] = 0x40021000
        0x08002906:    605a        Z`      STR      r2,[r3,#4]
        0x08002908:    461a        .F      MOV      r2,r3
        0x0800290a:    6852        Rh      LDR      r2,[r2,#4]
        0x0800290c:    4b21        !K      LDR      r3,[pc,#132] ; [0x8002994] = 0x8340000
        0x0800290e:    431a        .C      ORRS     r2,r2,r3
        0x08002910:    4b1d        .K      LDR      r3,[pc,#116] ; [0x8002988] = 0x40021000
        0x08002912:    605a        Z`      STR      r2,[r3,#4]
        0x08002914:    461a        .F      MOV      r2,r3
        0x08002916:    6812        .h      LDR      r2,[r2,#0]
        0x08002918:    f0427280    B..r    ORR      r2,r2,#0x1000000
        0x0800291c:    601a        .`      STR      r2,[r3,#0]
        0x0800291e:    bf00        ..      NOP      
        0x08002920:    4a19        .J      LDR      r2,[pc,#100] ; [0x8002988] = 0x40021000
        0x08002922:    6812        .h      LDR      r2,[r2,#0]
        0x08002924:    f0027200    ...r    AND      r2,r2,#0x2000000
        0x08002928:    2a00        .*      CMP      r2,#0
        0x0800292a:    d0f9        ..      BEQ      0x8002920 ; system_clock_120m_hxtal + 156
        0x0800292c:    4a17        .J      LDR      r2,[pc,#92] ; [0x800298c] = 0x40007000
        0x0800292e:    6812        .h      LDR      r2,[r2,#0]
        0x08002930:    f4423280    B..2    ORR      r2,r2,#0x10000
        0x08002934:    4b15        .K      LDR      r3,[pc,#84] ; [0x800298c] = 0x40007000
        0x08002936:    601a        .`      STR      r2,[r3,#0]
        0x08002938:    bf00        ..      NOP      
        0x0800293a:    4a14        .J      LDR      r2,[pc,#80] ; [0x800298c] = 0x40007000
        0x0800293c:    6852        Rh      LDR      r2,[r2,#4]
        0x0800293e:    f4023280    ...2    AND      r2,r2,#0x10000
        0x08002942:    2a00        .*      CMP      r2,#0
        0x08002944:    d0f9        ..      BEQ      0x800293a ; system_clock_120m_hxtal + 182
        0x08002946:    4a11        .J      LDR      r2,[pc,#68] ; [0x800298c] = 0x40007000
        0x08002948:    6812        .h      LDR      r2,[r2,#0]
        0x0800294a:    f4423200    B..2    ORR      r2,r2,#0x20000
        0x0800294e:    4b0f        .K      LDR      r3,[pc,#60] ; [0x800298c] = 0x40007000
        0x08002950:    601a        .`      STR      r2,[r3,#0]
        0x08002952:    bf00        ..      NOP      
        0x08002954:    4a0d        .J      LDR      r2,[pc,#52] ; [0x800298c] = 0x40007000
        0x08002956:    6852        Rh      LDR      r2,[r2,#4]
        0x08002958:    f4023200    ...2    AND      r2,r2,#0x20000
        0x0800295c:    2a00        .*      CMP      r2,#0
        0x0800295e:    d0f9        ..      BEQ      0x8002954 ; system_clock_120m_hxtal + 208
        0x08002960:    4a09        .J      LDR      r2,[pc,#36] ; [0x8002988] = 0x40021000
        0x08002962:    6852        Rh      LDR      r2,[r2,#4]
        0x08002964:    f0220203    "...    BIC      r2,r2,#3
        0x08002968:    4b07        .K      LDR      r3,[pc,#28] ; [0x8002988] = 0x40021000
        0x0800296a:    605a        Z`      STR      r2,[r3,#4]
        0x0800296c:    461a        .F      MOV      r2,r3
        0x0800296e:    6852        Rh      LDR      r2,[r2,#4]
        0x08002970:    f0420202    B...    ORR      r2,r2,#2
        0x08002974:    605a        Z`      STR      r2,[r3,#4]
        0x08002976:    bf00        ..      NOP      
        0x08002978:    4a03        .J      LDR      r2,[pc,#12] ; [0x8002988] = 0x40021000
        0x0800297a:    6852        Rh      LDR      r2,[r2,#4]
        0x0800297c:    f0020208    ....    AND      r2,r2,#8
        0x08002980:    2a00        .*      CMP      r2,#0
        0x08002982:    d0f9        ..      BEQ      0x8002978 ; system_clock_120m_hxtal + 244
        0x08002984:    4770        pG      BX       lr
    $d
        0x08002986:    0000        ..      DCW    0
        0x08002988:    40021000    ...@    DCD    1073876992
        0x0800298c:    40007000    .p.@    DCD    1073770496
        0x08002990:    b7c3ffff    ....    DCD    3083075583
        0x08002994:    08340000    ..4.    DCD    137625600
    $t
    i.system_clock_config
    system_clock_config
        0x08002998:    b510        ..      PUSH     {r4,lr}
        0x0800299a:    f7ffff73    ..s.    BL       system_clock_120m_hxtal ; 0x8002884
        0x0800299e:    bd10        ..      POP      {r4,pc}
    i.timer_counter_value_config
    timer_counter_value_config
        0x080029a0:    6241        Ab      STR      r1,[r0,#0x24]
        0x080029a2:    4770        pG      BX       lr
    i.timer_deinit
    timer_deinit
        0x080029a4:    b510        ..      PUSH     {r4,lr}
        0x080029a6:    4604        .F      MOV      r4,r0
        0x080029a8:    4933        3I      LDR      r1,[pc,#204] ; [0x8002a78] = 0x40001000
        0x080029aa:    1a60        `.      SUBS     r0,r4,r1
        0x080029ac:    428c        .B      CMP      r4,r1
        0x080029ae:    d044        D.      BEQ      0x8002a3a ; timer_deinit + 150
        0x080029b0:    dc0c        ..      BGT      0x80029cc ; timer_deinit + 40
        0x080029b2:    f1b44f80    ...O    CMP      r4,#0x40000000
        0x080029b6:    d01c        ..      BEQ      0x80029f2 ; timer_deinit + 78
        0x080029b8:    4830        0H      LDR      r0,[pc,#192] ; [0x8002a7c] = 0xbffffc00
        0x080029ba:    4420         D      ADD      r0,r0,r4
        0x080029bc:    b310        ..      CBZ      r0,0x8002a04 ; timer_deinit + 96
        0x080029be:    f5b06f80    ...o    CMP      r0,#0x400
        0x080029c2:    d028        (.      BEQ      0x8002a16 ; timer_deinit + 114
        0x080029c4:    f5b06f00    ...o    CMP      r0,#0x800
        0x080029c8:    d152        R.      BNE      0x8002a70 ; timer_deinit + 204
        0x080029ca:    e02d        -.      B        0x8002a28 ; timer_deinit + 132
        0x080029cc:    f5b06f80    ...o    CMP      r0,#0x400
        0x080029d0:    d03c        <.      BEQ      0x8002a4c ; timer_deinit + 168
        0x080029d2:    f5b03f8e    ...?    CMP      r0,#0x11c00
        0x080029d6:    d003        ..      BEQ      0x80029e0 ; timer_deinit + 60
        0x080029d8:    f5b03f92    ...?    CMP      r0,#0x12400
        0x080029dc:    d148        H.      BNE      0x8002a70 ; timer_deinit + 204
        0x080029de:    e03e        >.      B        0x8002a5e ; timer_deinit + 186
        0x080029e0:    f240300b    @..0    MOV      r0,#0x30b
        0x080029e4:    f7fffeae    ....    BL       rcu_periph_reset_enable ; 0x8002744
        0x080029e8:    f240300b    @..0    MOV      r0,#0x30b
        0x080029ec:    f7fffe9a    ....    BL       rcu_periph_reset_disable ; 0x8002724
        0x080029f0:    e03f        ?.      B        0x8002a72 ; timer_deinit + 206
        0x080029f2:    f44f6080    O..`    MOV      r0,#0x400
        0x080029f6:    f7fffea5    ....    BL       rcu_periph_reset_enable ; 0x8002744
        0x080029fa:    f44f6080    O..`    MOV      r0,#0x400
        0x080029fe:    f7fffe91    ....    BL       rcu_periph_reset_disable ; 0x8002724
        0x08002a02:    e036        6.      B        0x8002a72 ; timer_deinit + 206
        0x08002a04:    f2404001    @..@    MOV      r0,#0x401
        0x08002a08:    f7fffe9c    ....    BL       rcu_periph_reset_enable ; 0x8002744
        0x08002a0c:    f2404001    @..@    MOV      r0,#0x401
        0x08002a10:    f7fffe88    ....    BL       rcu_periph_reset_disable ; 0x8002724
        0x08002a14:    e02d        -.      B        0x8002a72 ; timer_deinit + 206
        0x08002a16:    f2404002    @..@    MOV      r0,#0x402
        0x08002a1a:    f7fffe93    ....    BL       rcu_periph_reset_enable ; 0x8002744
        0x08002a1e:    f2404002    @..@    MOV      r0,#0x402
        0x08002a22:    f7fffe7f    ....    BL       rcu_periph_reset_disable ; 0x8002724
        0x08002a26:    e024        $.      B        0x8002a72 ; timer_deinit + 206
        0x08002a28:    f2404003    @..@    MOV      r0,#0x403
        0x08002a2c:    f7fffe8a    ....    BL       rcu_periph_reset_enable ; 0x8002744
        0x08002a30:    f2404003    @..@    MOV      r0,#0x403
        0x08002a34:    f7fffe76    ..v.    BL       rcu_periph_reset_disable ; 0x8002724
        0x08002a38:    e01b        ..      B        0x8002a72 ; timer_deinit + 206
        0x08002a3a:    f2404004    @..@    MOV      r0,#0x404
        0x08002a3e:    f7fffe81    ....    BL       rcu_periph_reset_enable ; 0x8002744
        0x08002a42:    f2404004    @..@    MOV      r0,#0x404
        0x08002a46:    f7fffe6d    ..m.    BL       rcu_periph_reset_disable ; 0x8002724
        0x08002a4a:    e012        ..      B        0x8002a72 ; timer_deinit + 206
        0x08002a4c:    f2404005    @..@    MOV      r0,#0x405
        0x08002a50:    f7fffe78    ..x.    BL       rcu_periph_reset_enable ; 0x8002744
        0x08002a54:    f2404005    @..@    MOV      r0,#0x405
        0x08002a58:    f7fffe64    ..d.    BL       rcu_periph_reset_disable ; 0x8002724
        0x08002a5c:    e009        ..      B        0x8002a72 ; timer_deinit + 206
        0x08002a5e:    f240300d    @..0    MOV      r0,#0x30d
        0x08002a62:    f7fffe6f    ..o.    BL       rcu_periph_reset_enable ; 0x8002744
        0x08002a66:    f240300d    @..0    MOV      r0,#0x30d
        0x08002a6a:    f7fffe5b    ..[.    BL       rcu_periph_reset_disable ; 0x8002724
        0x08002a6e:    e000        ..      B        0x8002a72 ; timer_deinit + 206
        0x08002a70:    bf00        ..      NOP      
        0x08002a72:    bf00        ..      NOP      
        0x08002a74:    bd10        ..      POP      {r4,pc}
    $d
        0x08002a76:    0000        ..      DCW    0
        0x08002a78:    40001000    ...@    DCD    1073745920
        0x08002a7c:    bffffc00    ....    DCD    3221224448
    $t
    i.timer_disable
    timer_disable
        0x08002a80:    6801        .h      LDR      r1,[r0,#0]
        0x08002a82:    f0210101    !...    BIC      r1,r1,#1
        0x08002a86:    6001        .`      STR      r1,[r0,#0]
        0x08002a88:    4770        pG      BX       lr
    i.timer_enable
    timer_enable
        0x08002a8a:    6801        .h      LDR      r1,[r0,#0]
        0x08002a8c:    f0410101    A...    ORR      r1,r1,#1
        0x08002a90:    6001        .`      STR      r1,[r0,#0]
        0x08002a92:    4770        pG      BX       lr
    i.timer_init
    timer_init
        0x08002a94:    880a        ..      LDRH     r2,[r1,#0]
        0x08002a96:    6282        .b      STR      r2,[r0,#0x28]
        0x08002a98:    4a1d        .J      LDR      r2,[pc,#116] ; [0x8002b10] = 0x40012c00
        0x08002a9a:    4290        .B      CMP      r0,r2
        0x08002a9c:    d00e        ..      BEQ      0x8002abc ; timer_init + 40
        0x08002a9e:    f1b04f80    ...O    CMP      r0,#0x40000000
        0x08002aa2:    d00b        ..      BEQ      0x8002abc ; timer_init + 40
        0x08002aa4:    4a1b        .J      LDR      r2,[pc,#108] ; [0x8002b14] = 0x40000400
        0x08002aa6:    4290        .B      CMP      r0,r2
        0x08002aa8:    d008        ..      BEQ      0x8002abc ; timer_init + 40
        0x08002aaa:    4a1b        .J      LDR      r2,[pc,#108] ; [0x8002b18] = 0x40000800
        0x08002aac:    4290        .B      CMP      r0,r2
        0x08002aae:    d005        ..      BEQ      0x8002abc ; timer_init + 40
        0x08002ab0:    4a1a        .J      LDR      r2,[pc,#104] ; [0x8002b1c] = 0x40000c00
        0x08002ab2:    4290        .B      CMP      r0,r2
        0x08002ab4:    d002        ..      BEQ      0x8002abc ; timer_init + 40
        0x08002ab6:    4a1a        .J      LDR      r2,[pc,#104] ; [0x8002b20] = 0x40013400
        0x08002ab8:    4290        .B      CMP      r0,r2
        0x08002aba:    d10b        ..      BNE      0x8002ad4 ; timer_init + 64
        0x08002abc:    6802        .h      LDR      r2,[r0,#0]
        0x08002abe:    f0220270    ".p.    BIC      r2,r2,#0x70
        0x08002ac2:    6002        .`      STR      r2,[r0,#0]
        0x08002ac4:    6802        .h      LDR      r2,[r0,#0]
        0x08002ac6:    884b        K.      LDRH     r3,[r1,#2]
        0x08002ac8:    431a        .C      ORRS     r2,r2,r3
        0x08002aca:    6002        .`      STR      r2,[r0,#0]
        0x08002acc:    6802        .h      LDR      r2,[r0,#0]
        0x08002ace:    888b        ..      LDRH     r3,[r1,#4]
        0x08002ad0:    431a        .C      ORRS     r2,r2,r3
        0x08002ad2:    6002        .`      STR      r2,[r0,#0]
        0x08002ad4:    688a        .h      LDR      r2,[r1,#8]
        0x08002ad6:    62c2        .b      STR      r2,[r0,#0x2c]
        0x08002ad8:    4a12        .J      LDR      r2,[pc,#72] ; [0x8002b24] = 0x40001000
        0x08002ada:    4290        .B      CMP      r0,r2
        0x08002adc:    d00a        ..      BEQ      0x8002af4 ; timer_init + 96
        0x08002ade:    4a12        .J      LDR      r2,[pc,#72] ; [0x8002b28] = 0x40001400
        0x08002ae0:    4290        .B      CMP      r0,r2
        0x08002ae2:    d007        ..      BEQ      0x8002af4 ; timer_init + 96
        0x08002ae4:    6802        .h      LDR      r2,[r0,#0]
        0x08002ae6:    f4227240    ".@r    BIC      r2,r2,#0x300
        0x08002aea:    6002        .`      STR      r2,[r0,#0]
        0x08002aec:    6802        .h      LDR      r2,[r0,#0]
        0x08002aee:    88cb        ..      LDRH     r3,[r1,#6]
        0x08002af0:    431a        .C      ORRS     r2,r2,r3
        0x08002af2:    6002        .`      STR      r2,[r0,#0]
        0x08002af4:    4a06        .J      LDR      r2,[pc,#24] ; [0x8002b10] = 0x40012c00
        0x08002af6:    4290        .B      CMP      r0,r2
        0x08002af8:    d002        ..      BEQ      0x8002b00 ; timer_init + 108
        0x08002afa:    4a09        .J      LDR      r2,[pc,#36] ; [0x8002b20] = 0x40013400
        0x08002afc:    4290        .B      CMP      r0,r2
        0x08002afe:    d101        ..      BNE      0x8002b04 ; timer_init + 112
        0x08002b00:    7b0a        .{      LDRB     r2,[r1,#0xc]
        0x08002b02:    6302        .c      STR      r2,[r0,#0x30]
        0x08002b04:    6942        Bi      LDR      r2,[r0,#0x14]
        0x08002b06:    f0420201    B...    ORR      r2,r2,#1
        0x08002b0a:    6142        Ba      STR      r2,[r0,#0x14]
        0x08002b0c:    4770        pG      BX       lr
    $d
        0x08002b0e:    0000        ..      DCW    0
        0x08002b10:    40012c00    .,.@    DCD    1073818624
        0x08002b14:    40000400    ...@    DCD    1073742848
        0x08002b18:    40000800    ...@    DCD    1073743872
        0x08002b1c:    40000c00    ...@    DCD    1073744896
        0x08002b20:    40013400    .4.@    DCD    1073820672
        0x08002b24:    40001000    ...@    DCD    1073745920
        0x08002b28:    40001400    ...@    DCD    1073746944
    $t
    i.timer_interrupt_disable
    timer_interrupt_disable
        0x08002b2c:    68c2        .h      LDR      r2,[r0,#0xc]
        0x08002b2e:    438a        .C      BICS     r2,r2,r1
        0x08002b30:    60c2        .`      STR      r2,[r0,#0xc]
        0x08002b32:    4770        pG      BX       lr
    i.timer_interrupt_enable
    timer_interrupt_enable
        0x08002b34:    68c2        .h      LDR      r2,[r0,#0xc]
        0x08002b36:    430a        .C      ORRS     r2,r2,r1
        0x08002b38:    60c2        .`      STR      r2,[r0,#0xc]
        0x08002b3a:    4770        pG      BX       lr
    i.timer_interrupt_flag_clear
    timer_interrupt_flag_clear
        0x08002b3c:    43ca        .C      MVNS     r2,r1
        0x08002b3e:    6102        .a      STR      r2,[r0,#0x10]
        0x08002b40:    4770        pG      BX       lr
    i.timer_interrupt_flag_get
    timer_interrupt_flag_get
        0x08002b42:    4602        .F      MOV      r2,r0
        0x08002b44:    68d0        .h      LDR      r0,[r2,#0xc]
        0x08002b46:    ea000301    ....    AND      r3,r0,r1
        0x08002b4a:    6910        .i      LDR      r0,[r2,#0x10]
        0x08002b4c:    4008        .@      ANDS     r0,r0,r1
        0x08002b4e:    b110        ..      CBZ      r0,0x8002b56 ; timer_interrupt_flag_get + 20
        0x08002b50:    b10b        ..      CBZ      r3,0x8002b56 ; timer_interrupt_flag_get + 20
        0x08002b52:    2001        .       MOVS     r0,#1
        0x08002b54:    4770        pG      BX       lr
        0x08002b56:    2000        .       MOVS     r0,#0
        0x08002b58:    e7fc        ..      B        0x8002b54 ; timer_interrupt_flag_get + 18
    i.timer_struct_para_init
    timer_struct_para_init
        0x08002b5a:    2100        .!      MOVS     r1,#0
        0x08002b5c:    8001        ..      STRH     r1,[r0,#0]
        0x08002b5e:    8041        A.      STRH     r1,[r0,#2]
        0x08002b60:    8081        ..      STRH     r1,[r0,#4]
        0x08002b62:    f64f71ff    O..q    MOV      r1,#0xffff
        0x08002b66:    6081        .`      STR      r1,[r0,#8]
        0x08002b68:    2100        .!      MOVS     r1,#0
        0x08002b6a:    80c1        ..      STRH     r1,[r0,#6]
        0x08002b6c:    7301        .s      STRB     r1,[r0,#0xc]
        0x08002b6e:    4770        pG      BX       lr
    i.usMBCRC16
    usMBCRC16
        0x08002b70:    b570        p.      PUSH     {r4-r6,lr}
        0x08002b72:    4602        .F      MOV      r2,r0
        0x08002b74:    460c        .F      MOV      r4,r1
        0x08002b76:    25ff        .%      MOVS     r5,#0xff
        0x08002b78:    23ff        .#      MOVS     r3,#0xff
        0x08002b7a:    e009        ..      B        0x8002b90 ; usMBCRC16 + 32
        0x08002b7c:    f8120b01    ....    LDRB     r0,[r2],#1
        0x08002b80:    ea800103    ....    EOR      r1,r0,r3
        0x08002b84:    4806        .H      LDR      r0,[pc,#24] ; [0x8002ba0] = 0x8003168
        0x08002b86:    5c40        @\      LDRB     r0,[r0,r1]
        0x08002b88:    ea800305    ....    EOR      r3,r0,r5
        0x08002b8c:    4805        .H      LDR      r0,[pc,#20] ; [0x8002ba4] = 0x8003268
        0x08002b8e:    5c45        E\      LDRB     r5,[r0,r1]
        0x08002b90:    1e20         .      SUBS     r0,r4,#0
        0x08002b92:    f1a40601    ....    SUB      r6,r4,#1
        0x08002b96:    b2b4        ..      UXTH     r4,r6
        0x08002b98:    d1f0        ..      BNE      0x8002b7c ; usMBCRC16 + 12
        0x08002b9a:    ea432005    C..     ORR      r0,r3,r5,LSL #8
        0x08002b9e:    bd70        p.      POP      {r4-r6,pc}
    $d
        0x08002ba0:    08003168    h1..    DCD    134230376
        0x08002ba4:    08003268    h2..    DCD    134230632
    $t
    i.usart_baudrate_set
    usart_baudrate_set
        0x08002ba8:    e92d47f0    -..G    PUSH     {r4-r10,lr}
        0x08002bac:    4604        .F      MOV      r4,r0
        0x08002bae:    460d        .F      MOV      r5,r1
        0x08002bb0:    2700        .'      MOVS     r7,#0
        0x08002bb2:    46b8        .F      MOV      r8,r7
        0x08002bb4:    46b9        .F      MOV      r9,r7
        0x08002bb6:    2600        .&      MOVS     r6,#0
        0x08002bb8:    491d        .I      LDR      r1,[pc,#116] ; [0x8002c30] = 0x40004c00
        0x08002bba:    1a60        `.      SUBS     r0,r4,r1
        0x08002bbc:    428c        .B      CMP      r4,r1
        0x08002bbe:    d01c        ..      BEQ      0x8002bfa ; usart_baudrate_set + 82
        0x08002bc0:    dc06        ..      BGT      0x8002bd0 ; usart_baudrate_set + 40
        0x08002bc2:    481c        .H      LDR      r0,[pc,#112] ; [0x8002c34] = 0xbfffbc00
        0x08002bc4:    4420         D      ADD      r0,r0,r4
        0x08002bc6:    b170        p.      CBZ      r0,0x8002be6 ; usart_baudrate_set + 62
        0x08002bc8:    f5b06f80    ...o    CMP      r0,#0x400
        0x08002bcc:    d11f        ..      BNE      0x8002c0e ; usart_baudrate_set + 102
        0x08002bce:    e00f        ..      B        0x8002bf0 ; usart_baudrate_set + 72
        0x08002bd0:    f5b06f80    ...o    CMP      r0,#0x400
        0x08002bd4:    d016        ..      BEQ      0x8002c04 ; usart_baudrate_set + 92
        0x08002bd6:    f5b04f6c    ..lO    CMP      r0,#0xec00
        0x08002bda:    d118        ..      BNE      0x8002c0e ; usart_baudrate_set + 102
        0x08002bdc:    2003        .       MOVS     r0,#3
        0x08002bde:    f7fffc3b    ..;.    BL       rcu_clock_freq_get ; 0x8002458
        0x08002be2:    4607        .F      MOV      r7,r0
        0x08002be4:    e014        ..      B        0x8002c10 ; usart_baudrate_set + 104
        0x08002be6:    2002        .       MOVS     r0,#2
        0x08002be8:    f7fffc36    ..6.    BL       rcu_clock_freq_get ; 0x8002458
        0x08002bec:    4607        .F      MOV      r7,r0
        0x08002bee:    e00f        ..      B        0x8002c10 ; usart_baudrate_set + 104
        0x08002bf0:    2002        .       MOVS     r0,#2
        0x08002bf2:    f7fffc31    ..1.    BL       rcu_clock_freq_get ; 0x8002458
        0x08002bf6:    4607        .F      MOV      r7,r0
        0x08002bf8:    e00a        ..      B        0x8002c10 ; usart_baudrate_set + 104
        0x08002bfa:    2002        .       MOVS     r0,#2
        0x08002bfc:    f7fffc2c    ..,.    BL       rcu_clock_freq_get ; 0x8002458
        0x08002c00:    4607        .F      MOV      r7,r0
        0x08002c02:    e005        ..      B        0x8002c10 ; usart_baudrate_set + 104
        0x08002c04:    2002        .       MOVS     r0,#2
        0x08002c06:    f7fffc27    ..'.    BL       rcu_clock_freq_get ; 0x8002458
        0x08002c0a:    4607        .F      MOV      r7,r0
        0x08002c0c:    e000        ..      B        0x8002c10 ; usart_baudrate_set + 104
        0x08002c0e:    bf00        ..      NOP      
        0x08002c10:    bf00        ..      NOP      
        0x08002c12:    eb070055    ..U.    ADD      r0,r7,r5,LSR #1
        0x08002c16:    fbb0f6f5    ....    UDIV     r6,r0,r5
        0x08002c1a:    f64f70f0    O..p    MOV      r0,#0xfff0
        0x08002c1e:    ea060800    ....    AND      r8,r6,r0
        0x08002c22:    f006090f    ....    AND      r9,r6,#0xf
        0x08002c26:    ea480009    H...    ORR      r0,r8,r9
        0x08002c2a:    60a0        .`      STR      r0,[r4,#8]
        0x08002c2c:    e8bd87f0    ....    POP      {r4-r10,pc}
    $d
        0x08002c30:    40004c00    .L.@    DCD    1073761280
        0x08002c34:    bfffbc00    ....    DCD    3221208064
    $t
    i.usart_data_receive
    usart_data_receive
        0x08002c38:    4601        .F      MOV      r1,r0
        0x08002c3a:    6848        Hh      LDR      r0,[r1,#4]
        0x08002c3c:    f3c00008    ....    UBFX     r0,r0,#0,#9
        0x08002c40:    4770        pG      BX       lr
    i.usart_data_transmit
    usart_data_transmit
        0x08002c42:    f3c10208    ....    UBFX     r2,r1,#0,#9
        0x08002c46:    6042        B`      STR      r2,[r0,#4]
        0x08002c48:    4770        pG      BX       lr
        0x08002c4a:    0000        ..      MOVS     r0,r0
    i.usart_deinit
    usart_deinit
        0x08002c4c:    b510        ..      PUSH     {r4,lr}
        0x08002c4e:    4604        .F      MOV      r4,r0
        0x08002c50:    4920         I      LDR      r1,[pc,#128] ; [0x8002cd4] = 0x40004c00
        0x08002c52:    1a60        `.      SUBS     r0,r4,r1
        0x08002c54:    428c        .B      CMP      r4,r1
        0x08002c56:    d028        (.      BEQ      0x8002caa ; usart_deinit + 94
        0x08002c58:    dc06        ..      BGT      0x8002c68 ; usart_deinit + 28
        0x08002c5a:    481f        .H      LDR      r0,[pc,#124] ; [0x8002cd8] = 0xbfffbc00
        0x08002c5c:    4420         D      ADD      r0,r0,r4
        0x08002c5e:    b190        ..      CBZ      r0,0x8002c86 ; usart_deinit + 58
        0x08002c60:    f5b06f80    ...o    CMP      r0,#0x400
        0x08002c64:    d133        3.      BNE      0x8002cce ; usart_deinit + 130
        0x08002c66:    e017        ..      B        0x8002c98 ; usart_deinit + 76
        0x08002c68:    f5b06f80    ...o    CMP      r0,#0x400
        0x08002c6c:    d026        &.      BEQ      0x8002cbc ; usart_deinit + 112
        0x08002c6e:    f5b04f6c    ..lO    CMP      r0,#0xec00
        0x08002c72:    d12c        ,.      BNE      0x8002cce ; usart_deinit + 130
        0x08002c74:    f240300e    @..0    MOV      r0,#0x30e
        0x08002c78:    f7fffd64    ..d.    BL       rcu_periph_reset_enable ; 0x8002744
        0x08002c7c:    f240300e    @..0    MOV      r0,#0x30e
        0x08002c80:    f7fffd50    ..P.    BL       rcu_periph_reset_disable ; 0x8002724
        0x08002c84:    e024        $.      B        0x8002cd0 ; usart_deinit + 132
        0x08002c86:    f2404011    @..@    MOV      r0,#0x411
        0x08002c8a:    f7fffd5b    ..[.    BL       rcu_periph_reset_enable ; 0x8002744
        0x08002c8e:    f2404011    @..@    MOV      r0,#0x411
        0x08002c92:    f7fffd47    ..G.    BL       rcu_periph_reset_disable ; 0x8002724
        0x08002c96:    e01b        ..      B        0x8002cd0 ; usart_deinit + 132
        0x08002c98:    f2404012    @..@    MOV      r0,#0x412
        0x08002c9c:    f7fffd52    ..R.    BL       rcu_periph_reset_enable ; 0x8002744
        0x08002ca0:    f2404012    @..@    MOV      r0,#0x412
        0x08002ca4:    f7fffd3e    ..>.    BL       rcu_periph_reset_disable ; 0x8002724
        0x08002ca8:    e012        ..      B        0x8002cd0 ; usart_deinit + 132
        0x08002caa:    f2404013    @..@    MOV      r0,#0x413
        0x08002cae:    f7fffd49    ..I.    BL       rcu_periph_reset_enable ; 0x8002744
        0x08002cb2:    f2404013    @..@    MOV      r0,#0x413
        0x08002cb6:    f7fffd35    ..5.    BL       rcu_periph_reset_disable ; 0x8002724
        0x08002cba:    e009        ..      B        0x8002cd0 ; usart_deinit + 132
        0x08002cbc:    f2404014    @..@    MOV      r0,#0x414
        0x08002cc0:    f7fffd40    ..@.    BL       rcu_periph_reset_enable ; 0x8002744
        0x08002cc4:    f2404014    @..@    MOV      r0,#0x414
        0x08002cc8:    f7fffd2c    ..,.    BL       rcu_periph_reset_disable ; 0x8002724
        0x08002ccc:    e000        ..      B        0x8002cd0 ; usart_deinit + 132
        0x08002cce:    bf00        ..      NOP      
        0x08002cd0:    bf00        ..      NOP      
        0x08002cd2:    bd10        ..      POP      {r4,pc}
    $d
        0x08002cd4:    40004c00    .L.@    DCD    1073761280
        0x08002cd8:    bfffbc00    ....    DCD    3221208064
    $t
    i.usart_enable
    usart_enable
        0x08002cdc:    68c1        .h      LDR      r1,[r0,#0xc]
        0x08002cde:    f4415100    A..Q    ORR      r1,r1,#0x2000
        0x08002ce2:    60c1        .`      STR      r1,[r0,#0xc]
        0x08002ce4:    4770        pG      BX       lr
    i.usart_flag_get
    usart_flag_get
        0x08002ce6:    b510        ..      PUSH     {r4,lr}
        0x08002ce8:    4602        .F      MOV      r2,r0
        0x08002cea:    eb021091    ....    ADD      r0,r2,r1,LSR #6
        0x08002cee:    6800        .h      LDR      r0,[r0,#0]
        0x08002cf0:    f001041f    ....    AND      r4,r1,#0x1f
        0x08002cf4:    2301        .#      MOVS     r3,#1
        0x08002cf6:    40a3        .@      LSLS     r3,r3,r4
        0x08002cf8:    4018        .@      ANDS     r0,r0,r3
        0x08002cfa:    b108        ..      CBZ      r0,0x8002d00 ; usart_flag_get + 26
        0x08002cfc:    2001        .       MOVS     r0,#1
        0x08002cfe:    bd10        ..      POP      {r4,pc}
        0x08002d00:    2000        .       MOVS     r0,#0
        0x08002d02:    e7fc        ..      B        0x8002cfe ; usart_flag_get + 24
    i.usart_interrupt_disable
    usart_interrupt_disable
        0x08002d04:    b510        ..      PUSH     {r4,lr}
        0x08002d06:    eb001291    ....    ADD      r2,r0,r1,LSR #6
        0x08002d0a:    6812        .h      LDR      r2,[r2,#0]
        0x08002d0c:    f001041f    ....    AND      r4,r1,#0x1f
        0x08002d10:    2301        .#      MOVS     r3,#1
        0x08002d12:    40a3        .@      LSLS     r3,r3,r4
        0x08002d14:    439a        .C      BICS     r2,r2,r3
        0x08002d16:    eb001391    ....    ADD      r3,r0,r1,LSR #6
        0x08002d1a:    601a        .`      STR      r2,[r3,#0]
        0x08002d1c:    bd10        ..      POP      {r4,pc}
    i.usart_interrupt_enable
    usart_interrupt_enable
        0x08002d1e:    b510        ..      PUSH     {r4,lr}
        0x08002d20:    eb001291    ....    ADD      r2,r0,r1,LSR #6
        0x08002d24:    6812        .h      LDR      r2,[r2,#0]
        0x08002d26:    f001041f    ....    AND      r4,r1,#0x1f
        0x08002d2a:    2301        .#      MOVS     r3,#1
        0x08002d2c:    40a3        .@      LSLS     r3,r3,r4
        0x08002d2e:    431a        .C      ORRS     r2,r2,r3
        0x08002d30:    eb001391    ....    ADD      r3,r0,r1,LSR #6
        0x08002d34:    601a        .`      STR      r2,[r3,#0]
        0x08002d36:    bd10        ..      POP      {r4,pc}
    i.usart_interrupt_flag_clear
    usart_interrupt_flag_clear
        0x08002d38:    f3c14304    ...C    UBFX     r3,r1,#16,#5
        0x08002d3c:    2201        ."      MOVS     r2,#1
        0x08002d3e:    409a        .@      LSLS     r2,r2,r3
        0x08002d40:    43d2        .C      MVNS     r2,r2
        0x08002d42:    eb005391    ...S    ADD      r3,r0,r1,LSR #22
        0x08002d46:    601a        .`      STR      r2,[r3,#0]
        0x08002d48:    4770        pG      BX       lr
    i.usart_interrupt_flag_get
    usart_interrupt_flag_get
        0x08002d4a:    b570        p.      PUSH     {r4-r6,lr}
        0x08002d4c:    4602        .F      MOV      r2,r0
        0x08002d4e:    2300        .#      MOVS     r3,#0
        0x08002d50:    2400        .$      MOVS     r4,#0
        0x08002d52:    f3c11089    ....    UBFX     r0,r1,#6,#10
        0x08002d56:    5810        .X      LDR      r0,[r2,r0]
        0x08002d58:    f001061f    ....    AND      r6,r1,#0x1f
        0x08002d5c:    2501        .%      MOVS     r5,#1
        0x08002d5e:    40b5        .@      LSLS     r5,r5,r6
        0x08002d60:    ea000305    ....    AND      r3,r0,r5
        0x08002d64:    eb025091    ...P    ADD      r0,r2,r1,LSR #22
        0x08002d68:    6800        .h      LDR      r0,[r0,#0]
        0x08002d6a:    f3c14604    ...F    UBFX     r6,r1,#16,#5
        0x08002d6e:    2501        .%      MOVS     r5,#1
        0x08002d70:    40b5        .@      LSLS     r5,r5,r6
        0x08002d72:    ea000405    ....    AND      r4,r0,r5
        0x08002d76:    b114        ..      CBZ      r4,0x8002d7e ; usart_interrupt_flag_get + 52
        0x08002d78:    b10b        ..      CBZ      r3,0x8002d7e ; usart_interrupt_flag_get + 52
        0x08002d7a:    2001        .       MOVS     r0,#1
        0x08002d7c:    bd70        p.      POP      {r4-r6,pc}
        0x08002d7e:    2000        .       MOVS     r0,#0
        0x08002d80:    e7fc        ..      B        0x8002d7c ; usart_interrupt_flag_get + 50
    i.usart_receive_config
    usart_receive_config
        0x08002d82:    68c2        .h      LDR      r2,[r0,#0xc]
        0x08002d84:    f0220204    "...    BIC      r2,r2,#4
        0x08002d88:    60c2        .`      STR      r2,[r0,#0xc]
        0x08002d8a:    68c2        .h      LDR      r2,[r0,#0xc]
        0x08002d8c:    f0010304    ....    AND      r3,r1,#4
        0x08002d90:    431a        .C      ORRS     r2,r2,r3
        0x08002d92:    60c2        .`      STR      r2,[r0,#0xc]
        0x08002d94:    4770        pG      BX       lr
    i.usart_transmit_config
    usart_transmit_config
        0x08002d96:    68c2        .h      LDR      r2,[r0,#0xc]
        0x08002d98:    f0220208    "...    BIC      r2,r2,#8
        0x08002d9c:    60c2        .`      STR      r2,[r0,#0xc]
        0x08002d9e:    68c2        .h      LDR      r2,[r0,#0xc]
        0x08002da0:    f0010308    ....    AND      r3,r1,#8
        0x08002da4:    431a        .C      ORRS     r2,r2,r3
        0x08002da6:    60c2        .`      STR      r2,[r0,#0xc]
        0x08002da8:    4770        pG      BX       lr
        0x08002daa:    0000        ..      MOVS     r0,r0
    i.vMBPortSerialEnable
    vMBPortSerialEnable
        0x08002dac:    b570        p.      PUSH     {r4-r6,lr}
        0x08002dae:    4604        .F      MOV      r4,r0
        0x08002db0:    460d        .F      MOV      r5,r1
        0x08002db2:    2c01        .,      CMP      r4,#1
        0x08002db4:    d10a        ..      BNE      0x8002dcc ; vMBPortSerialEnable + 32
        0x08002db6:    4916        .I      LDR      r1,[pc,#88] ; [0x8002e10] = 0x200001bc
        0x08002db8:    6808        .h      LDR      r0,[r1,#0]
        0x08002dba:    f2403105    @..1    MOV      r1,#0x305
        0x08002dbe:    f7ffffae    ....    BL       usart_interrupt_enable ; 0x8002d1e
        0x08002dc2:    2120         !      MOVS     r1,#0x20
        0x08002dc4:    4813        .H      LDR      r0,[pc,#76] ; [0x8002e14] = 0x40011000
        0x08002dc6:    f7fff9dd    ....    BL       gpio_bit_reset ; 0x8002184
        0x08002dca:    e009        ..      B        0x8002de0 ; vMBPortSerialEnable + 52
        0x08002dcc:    4910        .I      LDR      r1,[pc,#64] ; [0x8002e10] = 0x200001bc
        0x08002dce:    6808        .h      LDR      r0,[r1,#0]
        0x08002dd0:    f2403105    @..1    MOV      r1,#0x305
        0x08002dd4:    f7ffff96    ....    BL       usart_interrupt_disable ; 0x8002d04
        0x08002dd8:    2120         !      MOVS     r1,#0x20
        0x08002dda:    480e        .H      LDR      r0,[pc,#56] ; [0x8002e14] = 0x40011000
        0x08002ddc:    f7fff9d4    ....    BL       gpio_bit_set ; 0x8002188
        0x08002de0:    2d01        .-      CMP      r5,#1
        0x08002de2:    d10a        ..      BNE      0x8002dfa ; vMBPortSerialEnable + 78
        0x08002de4:    490a        .I      LDR      r1,[pc,#40] ; [0x8002e10] = 0x200001bc
        0x08002de6:    6808        .h      LDR      r0,[r1,#0]
        0x08002de8:    f2403106    @..1    MOV      r1,#0x306
        0x08002dec:    f7ffff97    ....    BL       usart_interrupt_enable ; 0x8002d1e
        0x08002df0:    2120         !      MOVS     r1,#0x20
        0x08002df2:    4808        .H      LDR      r0,[pc,#32] ; [0x8002e14] = 0x40011000
        0x08002df4:    f7fff9c8    ....    BL       gpio_bit_set ; 0x8002188
        0x08002df8:    e009        ..      B        0x8002e0e ; vMBPortSerialEnable + 98
        0x08002dfa:    4905        .I      LDR      r1,[pc,#20] ; [0x8002e10] = 0x200001bc
        0x08002dfc:    6808        .h      LDR      r0,[r1,#0]
        0x08002dfe:    f2403106    @..1    MOV      r1,#0x306
        0x08002e02:    f7ffff7f    ....    BL       usart_interrupt_disable ; 0x8002d04
        0x08002e06:    2120         !      MOVS     r1,#0x20
        0x08002e08:    4802        .H      LDR      r0,[pc,#8] ; [0x8002e14] = 0x40011000
        0x08002e0a:    f7fff9bb    ....    BL       gpio_bit_reset ; 0x8002184
        0x08002e0e:    bd70        p.      POP      {r4-r6,pc}
    $d
        0x08002e10:    200001bc    ...     DCD    536871356
        0x08002e14:    40011000    ...@    DCD    1073811456
    $t
    i.vMBPortTimersDisable
    vMBPortTimersDisable
        0x08002e18:    b510        ..      PUSH     {r4,lr}
        0x08002e1a:    2100        .!      MOVS     r1,#0
        0x08002e1c:    4807        .H      LDR      r0,[pc,#28] ; [0x8002e3c] = 0x40000800
        0x08002e1e:    f7fffdbf    ....    BL       timer_counter_value_config ; 0x80029a0
        0x08002e22:    2101        .!      MOVS     r1,#1
        0x08002e24:    4805        .H      LDR      r0,[pc,#20] ; [0x8002e3c] = 0x40000800
        0x08002e26:    f7fffe89    ....    BL       timer_interrupt_flag_clear ; 0x8002b3c
        0x08002e2a:    2101        .!      MOVS     r1,#1
        0x08002e2c:    4803        .H      LDR      r0,[pc,#12] ; [0x8002e3c] = 0x40000800
        0x08002e2e:    f7fffe7d    ..}.    BL       timer_interrupt_disable ; 0x8002b2c
        0x08002e32:    4802        .H      LDR      r0,[pc,#8] ; [0x8002e3c] = 0x40000800
        0x08002e34:    f7fffe24    ..$.    BL       timer_disable ; 0x8002a80
        0x08002e38:    bd10        ..      POP      {r4,pc}
    $d
        0x08002e3a:    0000        ..      DCW    0
        0x08002e3c:    40000800    ...@    DCD    1073743872
    $t
    i.vMBPortTimersEnable
    vMBPortTimersEnable
        0x08002e40:    b510        ..      PUSH     {r4,lr}
        0x08002e42:    2100        .!      MOVS     r1,#0
        0x08002e44:    4807        .H      LDR      r0,[pc,#28] ; [0x8002e64] = 0x40000800
        0x08002e46:    f7fffdab    ....    BL       timer_counter_value_config ; 0x80029a0
        0x08002e4a:    2101        .!      MOVS     r1,#1
        0x08002e4c:    4805        .H      LDR      r0,[pc,#20] ; [0x8002e64] = 0x40000800
        0x08002e4e:    f7fffe75    ..u.    BL       timer_interrupt_flag_clear ; 0x8002b3c
        0x08002e52:    2101        .!      MOVS     r1,#1
        0x08002e54:    4803        .H      LDR      r0,[pc,#12] ; [0x8002e64] = 0x40000800
        0x08002e56:    f7fffe6d    ..m.    BL       timer_interrupt_enable ; 0x8002b34
        0x08002e5a:    4802        .H      LDR      r0,[pc,#8] ; [0x8002e64] = 0x40000800
        0x08002e5c:    f7fffe15    ....    BL       timer_enable ; 0x8002a8a
        0x08002e60:    bd10        ..      POP      {r4,pc}
    $d
        0x08002e62:    0000        ..      DCW    0
        0x08002e64:    40000800    ...@    DCD    1073743872
    $t
    i.xMBPortEventGet
    xMBPortEventGet
        0x08002e68:    4601        .F      MOV      r1,r0
        0x08002e6a:    2000        .       MOVS     r0,#0
        0x08002e6c:    4a05        .J      LDR      r2,[pc,#20] ; [0x8002e84] = 0x200001b9
        0x08002e6e:    7812        .x      LDRB     r2,[r2,#0]
        0x08002e70:    b132        2.      CBZ      r2,0x8002e80 ; xMBPortEventGet + 24
        0x08002e72:    4a05        .J      LDR      r2,[pc,#20] ; [0x8002e88] = 0x200001b8
        0x08002e74:    7812        .x      LDRB     r2,[r2,#0]
        0x08002e76:    700a        .p      STRB     r2,[r1,#0]
        0x08002e78:    2200        ."      MOVS     r2,#0
        0x08002e7a:    4b02        .K      LDR      r3,[pc,#8] ; [0x8002e84] = 0x200001b9
        0x08002e7c:    701a        .p      STRB     r2,[r3,#0]
        0x08002e7e:    2001        .       MOVS     r0,#1
        0x08002e80:    4770        pG      BX       lr
    $d
        0x08002e82:    0000        ..      DCW    0
        0x08002e84:    200001b9    ...     DCD    536871353
        0x08002e88:    200001b8    ...     DCD    536871352
    $t
    i.xMBPortEventInit
    xMBPortEventInit
        0x08002e8c:    2000        .       MOVS     r0,#0
        0x08002e8e:    4902        .I      LDR      r1,[pc,#8] ; [0x8002e98] = 0x200001b9
        0x08002e90:    7008        .p      STRB     r0,[r1,#0]
        0x08002e92:    2001        .       MOVS     r0,#1
        0x08002e94:    4770        pG      BX       lr
    $d
        0x08002e96:    0000        ..      DCW    0
        0x08002e98:    200001b9    ...     DCD    536871353
    $t
    i.xMBPortEventPost
    xMBPortEventPost
        0x08002e9c:    4601        .F      MOV      r1,r0
        0x08002e9e:    2001        .       MOVS     r0,#1
        0x08002ea0:    4a02        .J      LDR      r2,[pc,#8] ; [0x8002eac] = 0x200001b9
        0x08002ea2:    7010        .p      STRB     r0,[r2,#0]
        0x08002ea4:    4802        .H      LDR      r0,[pc,#8] ; [0x8002eb0] = 0x200001b8
        0x08002ea6:    7001        .p      STRB     r1,[r0,#0]
        0x08002ea8:    2001        .       MOVS     r0,#1
        0x08002eaa:    4770        pG      BX       lr
    $d
        0x08002eac:    200001b9    ...     DCD    536871353
        0x08002eb0:    200001b8    ...     DCD    536871352
    $t
    i.xMBPortSerialGetByte
    xMBPortSerialGetByte
        0x08002eb4:    b510        ..      PUSH     {r4,lr}
        0x08002eb6:    4604        .F      MOV      r4,r0
        0x08002eb8:    4903        .I      LDR      r1,[pc,#12] ; [0x8002ec8] = 0x200001bc
        0x08002eba:    6808        .h      LDR      r0,[r1,#0]
        0x08002ebc:    f7fffebc    ....    BL       usart_data_receive ; 0x8002c38
        0x08002ec0:    7020         p      STRB     r0,[r4,#0]
        0x08002ec2:    2001        .       MOVS     r0,#1
        0x08002ec4:    bd10        ..      POP      {r4,pc}
    $d
        0x08002ec6:    0000        ..      DCW    0
        0x08002ec8:    200001bc    ...     DCD    536871356
    $t
    i.xMBPortSerialInit
    xMBPortSerialInit
        0x08002ecc:    e92d41f0    -..A    PUSH     {r4-r8,lr}
        0x08002ed0:    4605        .F      MOV      r5,r0
        0x08002ed2:    460c        .F      MOV      r4,r1
        0x08002ed4:    4616        .F      MOV      r6,r2
        0x08002ed6:    461f        .F      MOV      r7,r3
        0x08002ed8:    f7fdff2a    ..*.    BL       SwitchInit ; 0x8000d30
        0x08002edc:    f7fdfbfe    ....    BL       GpioInit ; 0x80006dc
        0x08002ee0:    4620         F      MOV      r0,r4
        0x08002ee2:    f7fef901    ....    BL       UartInit ; 0x80010e8
        0x08002ee6:    2001        .       MOVS     r0,#1
        0x08002ee8:    e8bd81f0    ....    POP      {r4-r8,pc}
    i.xMBPortSerialPutByte
    xMBPortSerialPutByte
        0x08002eec:    b510        ..      PUSH     {r4,lr}
        0x08002eee:    4604        .F      MOV      r4,r0
        0x08002ef0:    4903        .I      LDR      r1,[pc,#12] ; [0x8002f00] = 0x200001bc
        0x08002ef2:    6808        .h      LDR      r0,[r1,#0]
        0x08002ef4:    4621        !F      MOV      r1,r4
        0x08002ef6:    f7fffea4    ....    BL       usart_data_transmit ; 0x8002c42
        0x08002efa:    2001        .       MOVS     r0,#1
        0x08002efc:    bd10        ..      POP      {r4,pc}
    $d
        0x08002efe:    0000        ..      DCW    0
        0x08002f00:    200001bc    ...     DCD    536871356
    $t
    i.xMBPortTimersInit
    xMBPortTimersInit
        0x08002f04:    b51f        ..      PUSH     {r0-r4,lr}
        0x08002f06:    4604        .F      MOV      r4,r0
        0x08002f08:    f2407002    @..p    MOV      r0,#0x702
        0x08002f0c:    f7fffbfa    ....    BL       rcu_periph_clock_enable ; 0x8002704
        0x08002f10:    480d        .H      LDR      r0,[pc,#52] ; [0x8002f48] = 0x40000800
        0x08002f12:    f7fffd47    ..G.    BL       timer_deinit ; 0x80029a4
        0x08002f16:    4668        hF      MOV      r0,sp
        0x08002f18:    f7fffe1f    ....    BL       timer_struct_para_init ; 0x8002b5a
        0x08002f1c:    f241706f    A.op    MOV      r0,#0x176f
        0x08002f20:    f8ad0000    ....    STRH     r0,[sp,#0]
        0x08002f24:    1e60        `.      SUBS     r0,r4,#1
        0x08002f26:    9002        ..      STR      r0,[sp,#8]
        0x08002f28:    4669        iF      MOV      r1,sp
        0x08002f2a:    4807        .H      LDR      r0,[pc,#28] ; [0x8002f48] = 0x40000800
        0x08002f2c:    f7fffdb2    ....    BL       timer_init ; 0x8002a94
        0x08002f30:    2101        .!      MOVS     r1,#1
        0x08002f32:    4805        .H      LDR      r0,[pc,#20] ; [0x8002f48] = 0x40000800
        0x08002f34:    f7fffdfe    ....    BL       timer_interrupt_enable ; 0x8002b34
        0x08002f38:    2200        ."      MOVS     r2,#0
        0x08002f3a:    4611        .F      MOV      r1,r2
        0x08002f3c:    201e        .       MOVS     r0,#0x1e
        0x08002f3e:    f7fff9a1    ....    BL       nvic_irq_enable ; 0x8002284
        0x08002f42:    2001        .       MOVS     r0,#1
        0x08002f44:    b004        ..      ADD      sp,sp,#0x10
        0x08002f46:    bd10        ..      POP      {r4,pc}
    $d
        0x08002f48:    40000800    ...@    DCD    1073743872
    $t
    i.xMBRTUReceiveFSM
    xMBRTUReceiveFSM
        0x08002f4c:    b538        8.      PUSH     {r3-r5,lr}
        0x08002f4e:    2400        .$      MOVS     r4,#0
        0x08002f50:    4821        !H      LDR      r0,[pc,#132] ; [0x8002fd8] = 0x20000120
        0x08002f52:    7800        .x      LDRB     r0,[r0,#0]
        0x08002f54:    b900        ..      CBNZ     r0,0x8002f58 ; xMBRTUReceiveFSM + 12
        0x08002f56:    e004        ..      B        0x8002f62 ; xMBRTUReceiveFSM + 22
        0x08002f58:    22ec        ."      MOVS     r2,#0xec
        0x08002f5a:    a120         .      ADR      r1,{pc}+0x82 ; 0x8002fdc
        0x08002f5c:    a025        %.      ADR      r0,{pc}+0x98 ; 0x8002ff4
        0x08002f5e:    f7fefa0d    ....    BL       __aeabi_assert ; 0x800137c
        0x08002f62:    4668        hF      MOV      r0,sp
        0x08002f64:    f7ffffa6    ....    BL       xMBPortSerialGetByte ; 0x8002eb4
        0x08002f68:    4829        )H      LDR      r0,[pc,#164] ; [0x8003010] = 0x20000121
        0x08002f6a:    7800        .x      LDRB     r0,[r0,#0]
        0x08002f6c:    b130        0.      CBZ      r0,0x8002f7c ; xMBRTUReceiveFSM + 48
        0x08002f6e:    2801        .(      CMP      r0,#1
        0x08002f70:    d00a        ..      BEQ      0x8002f88 ; xMBRTUReceiveFSM + 60
        0x08002f72:    2802        .(      CMP      r0,#2
        0x08002f74:    d019        ..      BEQ      0x8002faa ; xMBRTUReceiveFSM + 94
        0x08002f76:    2803        .(      CMP      r0,#3
        0x08002f78:    d12b        +.      BNE      0x8002fd2 ; xMBRTUReceiveFSM + 134
        0x08002f7a:    e002        ..      B        0x8002f82 ; xMBRTUReceiveFSM + 54
        0x08002f7c:    f7ffff60    ..`.    BL       vMBPortTimersEnable ; 0x8002e40
        0x08002f80:    e027        '.      B        0x8002fd2 ; xMBRTUReceiveFSM + 134
        0x08002f82:    f7ffff5d    ..].    BL       vMBPortTimersEnable ; 0x8002e40
        0x08002f86:    e024        $.      B        0x8002fd2 ; xMBRTUReceiveFSM + 134
        0x08002f88:    2000        .       MOVS     r0,#0
        0x08002f8a:    4922        "I      LDR      r1,[pc,#136] ; [0x8003014] = 0x2000012a
        0x08002f8c:    8008        ..      STRH     r0,[r1,#0]
        0x08002f8e:    f89d2000    ...     LDRB     r2,[sp,#0]
        0x08002f92:    8808        ..      LDRH     r0,[r1,#0]
        0x08002f94:    1c41        A.      ADDS     r1,r0,#1
        0x08002f96:    4b1f        .K      LDR      r3,[pc,#124] ; [0x8003014] = 0x2000012a
        0x08002f98:    8019        ..      STRH     r1,[r3,#0]
        0x08002f9a:    491f        .I      LDR      r1,[pc,#124] ; [0x8003018] = 0x200001dc
        0x08002f9c:    540a        .T      STRB     r2,[r1,r0]
        0x08002f9e:    2002        .       MOVS     r0,#2
        0x08002fa0:    491b        .I      LDR      r1,[pc,#108] ; [0x8003010] = 0x20000121
        0x08002fa2:    7008        .p      STRB     r0,[r1,#0]
        0x08002fa4:    f7ffff4c    ..L.    BL       vMBPortTimersEnable ; 0x8002e40
        0x08002fa8:    e013        ..      B        0x8002fd2 ; xMBRTUReceiveFSM + 134
        0x08002faa:    481a        .H      LDR      r0,[pc,#104] ; [0x8003014] = 0x2000012a
        0x08002fac:    8800        ..      LDRH     r0,[r0,#0]
        0x08002fae:    28ff        .(      CMP      r0,#0xff
        0x08002fb0:    dc09        ..      BGT      0x8002fc6 ; xMBRTUReceiveFSM + 122
        0x08002fb2:    f89d2000    ...     LDRB     r2,[sp,#0]
        0x08002fb6:    4917        .I      LDR      r1,[pc,#92] ; [0x8003014] = 0x2000012a
        0x08002fb8:    8808        ..      LDRH     r0,[r1,#0]
        0x08002fba:    1c41        A.      ADDS     r1,r0,#1
        0x08002fbc:    4b15        .K      LDR      r3,[pc,#84] ; [0x8003014] = 0x2000012a
        0x08002fbe:    8019        ..      STRH     r1,[r3,#0]
        0x08002fc0:    4915        .I      LDR      r1,[pc,#84] ; [0x8003018] = 0x200001dc
        0x08002fc2:    540a        .T      STRB     r2,[r1,r0]
        0x08002fc4:    e002        ..      B        0x8002fcc ; xMBRTUReceiveFSM + 128
        0x08002fc6:    2003        .       MOVS     r0,#3
        0x08002fc8:    4911        .I      LDR      r1,[pc,#68] ; [0x8003010] = 0x20000121
        0x08002fca:    7008        .p      STRB     r0,[r1,#0]
        0x08002fcc:    f7ffff38    ..8.    BL       vMBPortTimersEnable ; 0x8002e40
        0x08002fd0:    bf00        ..      NOP      
        0x08002fd2:    bf00        ..      NOP      
        0x08002fd4:    4620         F      MOV      r0,r4
        0x08002fd6:    bd38        8.      POP      {r3-r5,pc}
    $d
        0x08002fd8:    20000120     ..     DCD    536871200
        0x08002fdc:    5f64694d    Mid_    DCD    1600416077
        0x08002fe0:    62646f4d    Modb    DCD    1650749261
        0x08002fe4:    725c7375    us\r    DCD    1918661493
        0x08002fe8:    6d5c7574    tu\m    DCD    1834775924
        0x08002fec:    75747262    brtu    DCD    1970565730
        0x08002ff0:    0000632e    .c..    DCD    25390
        0x08002ff4:    646e5365    eSnd    DCD    1684951909
        0x08002ff8:    74617453    Stat    DCD    1952543827
        0x08002ffc:    3d3d2065    e ==    DCD    1027416165
        0x08003000:    41545320     STA    DCD    1096045344
        0x08003004:    545f4554    TE_T    DCD    1415529812
        0x08003008:    44495f58    X_ID    DCD    1145659224
        0x0800300c:    0000454c    LE..    DCD    17740
        0x08003010:    20000121    !..     DCD    536871201
        0x08003014:    2000012a    *..     DCD    536871210
        0x08003018:    200001dc    ...     DCD    536871388
    $t
    i.xMBRTUTimerT35Expired
    xMBRTUTimerT35Expired
        0x0800301c:    b510        ..      PUSH     {r4,lr}
        0x0800301e:    2400        .$      MOVS     r4,#0
        0x08003020:    4816        .H      LDR      r0,[pc,#88] ; [0x800307c] = 0x20000121
        0x08003022:    7800        .x      LDRB     r0,[r0,#0]
        0x08003024:    b120         .      CBZ      r0,0x8003030 ; xMBRTUTimerT35Expired + 20
        0x08003026:    2802        .(      CMP      r0,#2
        0x08003028:    d007        ..      BEQ      0x800303a ; xMBRTUTimerT35Expired + 30
        0x0800302a:    2803        .(      CMP      r0,#3
        0x0800302c:    d10b        ..      BNE      0x8003046 ; xMBRTUTimerT35Expired + 42
        0x0800302e:    e009        ..      B        0x8003044 ; xMBRTUTimerT35Expired + 40
        0x08003030:    2000        .       MOVS     r0,#0
        0x08003032:    f7ffff33    ..3.    BL       xMBPortEventPost ; 0x8002e9c
        0x08003036:    4604        .F      MOV      r4,r0
        0x08003038:    e018        ..      B        0x800306c ; xMBRTUTimerT35Expired + 80
        0x0800303a:    2001        .       MOVS     r0,#1
        0x0800303c:    f7ffff2e    ....    BL       xMBPortEventPost ; 0x8002e9c
        0x08003040:    4604        .F      MOV      r4,r0
        0x08003042:    e013        ..      B        0x800306c ; xMBRTUTimerT35Expired + 80
        0x08003044:    e012        ..      B        0x800306c ; xMBRTUTimerT35Expired + 80
        0x08003046:    480d        .H      LDR      r0,[pc,#52] ; [0x800307c] = 0x20000121
        0x08003048:    7800        .x      LDRB     r0,[r0,#0]
        0x0800304a:    b138        8.      CBZ      r0,0x800305c ; xMBRTUTimerT35Expired + 64
        0x0800304c:    480b        .H      LDR      r0,[pc,#44] ; [0x800307c] = 0x20000121
        0x0800304e:    7800        .x      LDRB     r0,[r0,#0]
        0x08003050:    2802        .(      CMP      r0,#2
        0x08003052:    d003        ..      BEQ      0x800305c ; xMBRTUTimerT35Expired + 64
        0x08003054:    4809        .H      LDR      r0,[pc,#36] ; [0x800307c] = 0x20000121
        0x08003056:    7800        .x      LDRB     r0,[r0,#0]
        0x08003058:    2803        .(      CMP      r0,#3
        0x0800305a:    d100        ..      BNE      0x800305e ; xMBRTUTimerT35Expired + 66
        0x0800305c:    e005        ..      B        0x800306a ; xMBRTUTimerT35Expired + 78
        0x0800305e:    f44f72b0    O..r    MOV      r2,#0x160
        0x08003062:    a107        ..      ADR      r1,{pc}+0x1e ; 0x8003080
        0x08003064:    480c        .H      LDR      r0,[pc,#48] ; [0x8003098] = 0x8003368
        0x08003066:    f7fef989    ....    BL       __aeabi_assert ; 0x800137c
        0x0800306a:    bf00        ..      NOP      
        0x0800306c:    bf00        ..      NOP      
        0x0800306e:    f7fffed3    ....    BL       vMBPortTimersDisable ; 0x8002e18
        0x08003072:    2001        .       MOVS     r0,#1
        0x08003074:    4901        .I      LDR      r1,[pc,#4] ; [0x800307c] = 0x20000121
        0x08003076:    7008        .p      STRB     r0,[r1,#0]
        0x08003078:    4620         F      MOV      r0,r4
        0x0800307a:    bd10        ..      POP      {r4,pc}
    $d
        0x0800307c:    20000121    !..     DCD    536871201
        0x08003080:    5f64694d    Mid_    DCD    1600416077
        0x08003084:    62646f4d    Modb    DCD    1650749261
        0x08003088:    725c7375    us\r    DCD    1918661493
        0x0800308c:    6d5c7574    tu\m    DCD    1834775924
        0x08003090:    75747262    brtu    DCD    1970565730
        0x08003094:    0000632e    .c..    DCD    25390
        0x08003098:    08003368    h3..    DCD    134230888
    $t
    i.xMBRTUTransmitFSM
    xMBRTUTransmitFSM
        0x0800309c:    b510        ..      PUSH     {r4,lr}
        0x0800309e:    2400        .$      MOVS     r4,#0
        0x080030a0:    481b        .H      LDR      r0,[pc,#108] ; [0x8003110] = 0x20000121
        0x080030a2:    7800        .x      LDRB     r0,[r0,#0]
        0x080030a4:    2801        .(      CMP      r0,#1
        0x080030a6:    d100        ..      BNE      0x80030aa ; xMBRTUTransmitFSM + 14
        0x080030a8:    e005        ..      B        0x80030b6 ; xMBRTUTransmitFSM + 26
        0x080030aa:    f2401227    @.'.    MOV      r2,#0x127
        0x080030ae:    a119        ..      ADR      r1,{pc}+0x66 ; 0x8003114
        0x080030b0:    a01e        ..      ADR      r0,{pc}+0x7c ; 0x800312c
        0x080030b2:    f7fef963    ..c.    BL       __aeabi_assert ; 0x800137c
        0x080030b6:    4824        $H      LDR      r0,[pc,#144] ; [0x8003148] = 0x20000120
        0x080030b8:    7800        .x      LDRB     r0,[r0,#0]
        0x080030ba:    b110        ..      CBZ      r0,0x80030c2 ; xMBRTUTransmitFSM + 38
        0x080030bc:    2801        .(      CMP      r0,#1
        0x080030be:    d124        $.      BNE      0x800310a ; xMBRTUTransmitFSM + 110
        0x080030c0:    e004        ..      B        0x80030cc ; xMBRTUTransmitFSM + 48
        0x080030c2:    2100        .!      MOVS     r1,#0
        0x080030c4:    2001        .       MOVS     r0,#1
        0x080030c6:    f7fffe71    ..q.    BL       vMBPortSerialEnable ; 0x8002dac
        0x080030ca:    e01e        ..      B        0x800310a ; xMBRTUTransmitFSM + 110
        0x080030cc:    481f        .H      LDR      r0,[pc,#124] ; [0x800314c] = 0x20000128
        0x080030ce:    8800        ..      LDRH     r0,[r0,#0]
        0x080030d0:    b178        x.      CBZ      r0,0x80030f2 ; xMBRTUTransmitFSM + 86
        0x080030d2:    491f        .I      LDR      r1,[pc,#124] ; [0x8003150] = 0x20000124
        0x080030d4:    6809        .h      LDR      r1,[r1,#0]
        0x080030d6:    7808        .x      LDRB     r0,[r1,#0]
        0x080030d8:    f7ffff08    ....    BL       xMBPortSerialPutByte ; 0x8002eec
        0x080030dc:    481c        .H      LDR      r0,[pc,#112] ; [0x8003150] = 0x20000124
        0x080030de:    6800        .h      LDR      r0,[r0,#0]
        0x080030e0:    1c40        @.      ADDS     r0,r0,#1
        0x080030e2:    491b        .I      LDR      r1,[pc,#108] ; [0x8003150] = 0x20000124
        0x080030e4:    6008        .`      STR      r0,[r1,#0]
        0x080030e6:    4819        .H      LDR      r0,[pc,#100] ; [0x800314c] = 0x20000128
        0x080030e8:    8800        ..      LDRH     r0,[r0,#0]
        0x080030ea:    1e40        @.      SUBS     r0,r0,#1
        0x080030ec:    4917        .I      LDR      r1,[pc,#92] ; [0x800314c] = 0x20000128
        0x080030ee:    8008        ..      STRH     r0,[r1,#0]
        0x080030f0:    e00a        ..      B        0x8003108 ; xMBRTUTransmitFSM + 108
        0x080030f2:    2003        .       MOVS     r0,#3
        0x080030f4:    f7fffed2    ....    BL       xMBPortEventPost ; 0x8002e9c
        0x080030f8:    4604        .F      MOV      r4,r0
        0x080030fa:    2100        .!      MOVS     r1,#0
        0x080030fc:    2001        .       MOVS     r0,#1
        0x080030fe:    f7fffe55    ..U.    BL       vMBPortSerialEnable ; 0x8002dac
        0x08003102:    2000        .       MOVS     r0,#0
        0x08003104:    4910        .I      LDR      r1,[pc,#64] ; [0x8003148] = 0x20000120
        0x08003106:    7008        .p      STRB     r0,[r1,#0]
        0x08003108:    bf00        ..      NOP      
        0x0800310a:    bf00        ..      NOP      
        0x0800310c:    4620         F      MOV      r0,r4
        0x0800310e:    bd10        ..      POP      {r4,pc}
    $d
        0x08003110:    20000121    !..     DCD    536871201
        0x08003114:    5f64694d    Mid_    DCD    1600416077
        0x08003118:    62646f4d    Modb    DCD    1650749261
        0x0800311c:    725c7375    us\r    DCD    1918661493
        0x08003120:    6d5c7574    tu\m    DCD    1834775924
        0x08003124:    75747262    brtu    DCD    1970565730
        0x08003128:    0000632e    .c..    DCD    25390
        0x0800312c:    76635265    eRcv    DCD    1986220645
        0x08003130:    74617453    Stat    DCD    1952543827
        0x08003134:    3d3d2065    e ==    DCD    1027416165
        0x08003138:    41545320     STA    DCD    1096045344
        0x0800313c:    525f4554    TE_R    DCD    1381975380
        0x08003140:    44495f58    X_ID    DCD    1145659224
        0x08003144:    0000454c    LE..    DCD    17740
        0x08003148:    20000120     ..     DCD    536871200
        0x0800314c:    20000128    (..     DCD    536871208
        0x08003150:    20000124    $..     DCD    536871204
    $d.realdata
    .constdata
    g_sysParamDefault
        0x08003154:    00015a5a    ZZ..    DCD    88666
    .constdata
        0x08003158:    00000001    ....    DCD    1
        0x0800315c:    00002580    .%..    DCD    9600
        0x08003160:    08000b1d    ....    DCD    134220573
        0x08003164:    080012a1    ....    DCD    134222497
    .constdata
    aucCRCHi
        0x08003168:    4081c100    ...@    DCD    1082245376
        0x0800316c:    4180c001    ...A    DCD    1098956801
        0x08003170:    4180c001    ...A    DCD    1098956801
        0x08003174:    4081c100    ...@    DCD    1082245376
        0x08003178:    4180c001    ...A    DCD    1098956801
        0x0800317c:    4081c100    ...@    DCD    1082245376
        0x08003180:    4081c100    ...@    DCD    1082245376
        0x08003184:    4180c001    ...A    DCD    1098956801
        0x08003188:    4180c001    ...A    DCD    1098956801
        0x0800318c:    4081c100    ...@    DCD    1082245376
        0x08003190:    4081c100    ...@    DCD    1082245376
        0x08003194:    4180c001    ...A    DCD    1098956801
        0x08003198:    4081c100    ...@    DCD    1082245376
        0x0800319c:    4180c001    ...A    DCD    1098956801
        0x080031a0:    4180c001    ...A    DCD    1098956801
        0x080031a4:    4081c100    ...@    DCD    1082245376
        0x080031a8:    4180c001    ...A    DCD    1098956801
        0x080031ac:    4081c100    ...@    DCD    1082245376
        0x080031b0:    4081c100    ...@    DCD    1082245376
        0x080031b4:    4180c001    ...A    DCD    1098956801
        0x080031b8:    4081c100    ...@    DCD    1082245376
        0x080031bc:    4180c001    ...A    DCD    1098956801
        0x080031c0:    4180c001    ...A    DCD    1098956801
        0x080031c4:    4081c100    ...@    DCD    1082245376
        0x080031c8:    4081c100    ...@    DCD    1082245376
        0x080031cc:    4180c001    ...A    DCD    1098956801
        0x080031d0:    4180c001    ...A    DCD    1098956801
        0x080031d4:    4081c100    ...@    DCD    1082245376
        0x080031d8:    4180c001    ...A    DCD    1098956801
        0x080031dc:    4081c100    ...@    DCD    1082245376
        0x080031e0:    4081c100    ...@    DCD    1082245376
        0x080031e4:    4180c001    ...A    DCD    1098956801
        0x080031e8:    4180c001    ...A    DCD    1098956801
        0x080031ec:    4081c100    ...@    DCD    1082245376
        0x080031f0:    4081c100    ...@    DCD    1082245376
        0x080031f4:    4180c001    ...A    DCD    1098956801
        0x080031f8:    4081c100    ...@    DCD    1082245376
        0x080031fc:    4180c001    ...A    DCD    1098956801
        0x08003200:    4180c001    ...A    DCD    1098956801
        0x08003204:    4081c100    ...@    DCD    1082245376
        0x08003208:    4081c100    ...@    DCD    1082245376
        0x0800320c:    4180c001    ...A    DCD    1098956801
        0x08003210:    4180c001    ...A    DCD    1098956801
        0x08003214:    4081c100    ...@    DCD    1082245376
        0x08003218:    4180c001    ...A    DCD    1098956801
        0x0800321c:    4081c100    ...@    DCD    1082245376
        0x08003220:    4081c100    ...@    DCD    1082245376
        0x08003224:    4180c001    ...A    DCD    1098956801
        0x08003228:    4081c100    ...@    DCD    1082245376
        0x0800322c:    4180c001    ...A    DCD    1098956801
        0x08003230:    4180c001    ...A    DCD    1098956801
        0x08003234:    4081c100    ...@    DCD    1082245376
        0x08003238:    4180c001    ...A    DCD    1098956801
        0x0800323c:    4081c100    ...@    DCD    1082245376
        0x08003240:    4081c100    ...@    DCD    1082245376
        0x08003244:    4180c001    ...A    DCD    1098956801
        0x08003248:    4180c001    ...A    DCD    1098956801
        0x0800324c:    4081c100    ...@    DCD    1082245376
        0x08003250:    4081c100    ...@    DCD    1082245376
        0x08003254:    4180c001    ...A    DCD    1098956801
        0x08003258:    4081c100    ...@    DCD    1082245376
        0x0800325c:    4180c001    ...A    DCD    1098956801
        0x08003260:    4180c001    ...A    DCD    1098956801
        0x08003264:    4081c100    ...@    DCD    1082245376
    aucCRCLo
        0x08003268:    01c1c000    ....    DCD    29474816
        0x0800326c:    c20203c3    ....    DCD    3254911939
        0x08003270:    c70706c6    ....    DCD    3339126470
        0x08003274:    04c4c505    ....    DCD    80004357
        0x08003278:    cd0d0ccc    ....    DCD    3440184524
        0x0800327c:    0ececf0f    ....    DCD    248434447
        0x08003280:    0bcbca0a    ....    DCD    197904906
        0x08003284:    c80809c9    ....    DCD    3355969993
        0x08003288:    d91918d8    ....    DCD    3642300632
        0x0800328c:    1adadb1b    ....    DCD    450550555
        0x08003290:    1fdfde1e    ....    DCD    534765086
        0x08003294:    dc1c1ddd    ....    DCD    3692830173
        0x08003298:    15d5d414    ....    DCD    366334996
        0x0800329c:    d61617d7    ....    DCD    3591772119
        0x080032a0:    d31312d2    ....    DCD    3541242578
        0x080032a4:    10d0d111    ....    DCD    282120465
        0x080032a8:    f13130f0    .01.    DCD    4046532848
        0x080032ac:    32f2f333    3..2    DCD    854782771
        0x080032b0:    37f7f636    6..7    DCD    938997302
        0x080032b4:    f43435f5    .54.    DCD    4097062389
        0x080032b8:    3dfdfc3c    <..=    DCD    1040055356
        0x080032bc:    fe3e3fff    .?>.    DCD    4265492479
        0x080032c0:    fb3b3afa    .:;.    DCD    4214962938
        0x080032c4:    38f8f939    9..8    DCD    955840825
        0x080032c8:    29e9e828    (..)    DCD    703195176
        0x080032cc:    ea2a2beb    .+*.    DCD    3928632299
        0x080032d0:    ef2f2eee    ../.    DCD    4012846830
        0x080032d4:    2ceced2d    -..,    DCD    753724717
        0x080032d8:    e52524e4    .$%.    DCD    3844416740
        0x080032dc:    26e6e727    '..&    DCD    652666663
        0x080032e0:    23e3e222    "..#    DCD    602137122
        0x080032e4:    e02021e1    .! .    DCD    3760202209
        0x080032e8:    a16160a0    .`a.    DCD    2707513504
        0x080032ec:    62a2a363    c..b    DCD    1654825827
        0x080032f0:    67a7a666    f..g    DCD    1739040358
        0x080032f4:    a46465a5    .ed.    DCD    2758043045
        0x080032f8:    6dadac6c    l..m    DCD    1840098412
        0x080032fc:    ae6e6faf    .on.    DCD    2926473135
        0x08003300:    ab6b6aaa    .jk.    DCD    2875943594
        0x08003304:    68a8a969    i..h    DCD    1755883881
        0x08003308:    79b9b878    x..y    DCD    2042214520
        0x0800330c:    ba7a7bbb    .{z.    DCD    3128589243
        0x08003310:    bf7f7ebe    .~..    DCD    3212803774
        0x08003314:    7cbcbd7d    }..|    DCD    2092744061
        0x08003318:    b57574b4    .tu.    DCD    3044373684
        0x0800331c:    76b6b777    w..v    DCD    1991686007
        0x08003320:    73b3b272    r..s    DCD    1941156466
        0x08003324:    b07071b1    .qp.    DCD    2960159153
        0x08003328:    51919050    P..Q    DCD    1368494160
        0x0800332c:    92525393    .SR.    DCD    2454868883
        0x08003330:    97575696    .VW.    DCD    2539083414
        0x08003334:    54949555    U..T    DCD    1419023701
        0x08003338:    9d5d5c9c    .\].    DCD    2640141468
        0x0800333c:    5e9e9f5f    _..^    DCD    1587453791
        0x08003340:    5b9b9a5a    Z..[    DCD    1536924250
        0x08003344:    98585999    .YX.    DCD    2555926937
        0x08003348:    89494888    .HI.    DCD    2303281288
        0x0800334c:    4a8a8b4b    K..J    DCD    1250593611
        0x08003350:    4f8f8e4e    N..O    DCD    1334808142
        0x08003354:    8c4c4d8d    .ML.    DCD    2353810829
        0x08003358:    45858444    D..E    DCD    1166378052
        0x0800335c:    86464787    .GF.    DCD    2252752775
        0x08003360:    83434282    .BC.    DCD    2202223234
        0x08003364:    40808141    A..@    DCD    1082163521
    .conststring
        0x08003368:    52652028    ( eR    DCD    1382359080
        0x0800336c:    74537663    cvSt    DCD    1951626851
        0x08003370:    20657461    ate     DCD    543519841
        0x08003374:    53203d3d    == S    DCD    1394621757
        0x08003378:    45544154    TATE    DCD    1163149652
        0x0800337c:    5f58525f    _RX_    DCD    1599623775
        0x08003380:    54494e49    INIT    DCD    1414090313
        0x08003384:    7c202920     ) |    DCD    2082482464
        0x08003388:    2028207c    | (     DCD    539500668
        0x0800338c:    76635265    eRcv    DCD    1986220645
        0x08003390:    74617453    Stat    DCD    1952543827
        0x08003394:    3d3d2065    e ==    DCD    1027416165
        0x08003398:    41545320     STA    DCD    1096045344
        0x0800339c:    525f4554    TE_R    DCD    1381975380
        0x080033a0:    43525f58    X_RC    DCD    1129471832
        0x080033a4:    20292056    V )     DCD    539566166
        0x080033a8:    28207c7c    || (    DCD    673217660
        0x080033ac:    63526520     eRc    DCD    1666344224
        0x080033b0:    61745376    vSta    DCD    1635013494
        0x080033b4:    3d206574    te =    DCD    1025533300
        0x080033b8:    5453203d    = ST    DCD    1414733885
        0x080033bc:    5f455441    ATE_    DCD    1598379073
        0x080033c0:    455f5852    RX_E    DCD    1163876434
        0x080033c4:    524f5252    RROR    DCD    1380930130
        0x080033c8:    00002920     )..    DCD    10528
    Region$$Table$$Base
        0x080033cc:    080033ec    .3..    DCD    134231020
        0x080033d0:    20000000    ...     DCD    536870912
        0x080033d4:    000001dc    ....    DCD    476
        0x080033d8:    0800022e    ....    DCD    134218286
        0x080033dc:    0800347c    |4..    DCD    134231164
        0x080033e0:    200001dc    ...     DCD    536871388
        0x080033e4:    00000534    4...    DCD    1332
        0x080033e8:    08001428    (...    DCD    134222888
    Region$$Table$$Limit

** Section #2 'RW_IRAM1' (SHT_PROGBITS) [SHF_ALLOC + SHF_WRITE]
    Size   : 144 bytes (alignment 8)
    Address: 0x20000000


** Section #3 'RW_IRAM1' (SHT_NOBITS) [SHF_ALLOC + SHF_WRITE]
    Size   : 1332 bytes (alignment 8)
    Address: 0x200001dc


** Section #4 '.debug_abbrev' (SHT_PROGBITS)
    Size   : 1476 bytes


** Section #5 '.debug_frame' (SHT_PROGBITS)
    Size   : 5908 bytes


** Section #6 '.debug_info' (SHT_PROGBITS)
    Size   : 95320 bytes


** Section #7 '.debug_line' (SHT_PROGBITS)
    Size   : 28580 bytes


** Section #8 '.debug_loc' (SHT_PROGBITS)
    Size   : 11556 bytes


** Section #9 '.debug_macinfo' (SHT_PROGBITS)
    Size   : 119496 bytes


** Section #10 '.debug_pubnames' (SHT_PROGBITS)
    Size   : 6389 bytes


** Section #11 '.symtab' (SHT_SYMTAB)
    Size   : 15216 bytes (alignment 4)
    String table #12 '.strtab'
    Last local symbol no. 665


** Section #12 '.strtab' (SHT_STRTAB)
    Size   : 12484 bytes


** Section #13 '.note' (SHT_NOTE)
    Size   : 28 bytes (alignment 4)


** Section #14 '.comment' (SHT_PROGBITS)
    Size   : 41188 bytes


** Section #15 '.shstrtab' (SHT_STRTAB)
    Size   : 156 bytes


address     size       variable name                            type
0x200001bc  0x18       g_uartHwInfo                             UartHwInfo_t
0x200001bc  0x4        g_uartHwInfo.uartNo                      uint32_t
0x200001c0  0x2        g_uartHwInfo.rcuUart                     rcu_periph_enum
0x200001c2  0x2        g_uartHwInfo.rcuGpio                     rcu_periph_enum
0x200001c4  0x4        g_uartHwInfo.gpio                        uint32_t
0x200001c8  0x4        g_uartHwInfo.txPin                       uint32_t
0x200001cc  0x4        g_uartHwInfo.rxPin                       uint32_t
0x200001d0  0x1        g_uartHwInfo.irq                         uint8_t

address     size       variable name                            type
0x200001b8  0x1        eQueuedEvent                             eMBEventType

address     size       variable name                            type
0x200001b9  0x1        xEventInQueue                            BOOL

address     size       variable name                            type
0x2000019c  0x18       g_uartHwInfo                             UartHwInfo_t
0x2000019c  0x4        g_uartHwInfo.uartNo                      uint32_t
0x200001a0  0x2        g_uartHwInfo.rcuUart                     rcu_periph_enum
0x200001a2  0x2        g_uartHwInfo.rcuGpio                     rcu_periph_enum
0x200001a4  0x4        g_uartHwInfo.gpio                        uint32_t
0x200001a8  0x4        g_uartHwInfo.txPin                       uint32_t
0x200001ac  0x4        g_uartHwInfo.rxPin                       uint32_t
0x200001b0  0x1        g_uartHwInfo.irq                         uint8_t

address     size       variable name                            type
0x200001b4  0x4        pProcUartDataFunc                        pointer to function 

address     size       variable name                            type
0x20000198  0x4        g_pTaskScheduleFunc                      pointer to function 

address     size       variable name                            type
0x20000190  0x8        g_sysRunTime                             volatile uint64_t

address     size       variable name                            type
0x20000184  0x2        g_adcVal                                 uint16_t

address     size       variable name                            type
0x20000186  0x1        g_humiData                               uint8_t

address     size       variable name                            type
0x00000000  0x1d4      g_rhADCVal                               array[13] of array[18] of const uint16_t

address     size       variable name                            type
0x00000000  0xc8       g_ntcAdcTable                            array[100] of const uint16_t

address     size       variable name                            type
0x00000000  0x14       g_temp10MplBuf                           array[10] of uint16_t

address     size       variable name                            type
0x2000017c  0x4        g_tempData                               float

address     size       variable name                            type
0x20000158  0x24       g_gpioList                               array[3] of Led_GPIO_t

address     size       variable name                            type
0x20000134  0x24       g_gpioList                               array[3] of Key_GPIO_t

address     size       variable name                            type
0x200002e0  0x30       g_keyInfo                                array[3] of Key_Info_t

address     size       variable name                            type
0x2000012c  0x8        g_modbusFuncCb                           ModbusFuncCb_t
0x2000012c  0x4        g_modbusFuncCb.ReadRegs                  pointer to function 
0x20000130  0x4        g_modbusFuncCb.WriteRegs                 pointer to function 

address     size       variable name                            type
0x20000121  0x1        eRcvState                                volatile eMBRcvState

address     size       variable name                            type
0x20000120  0x1        eSndState                                volatile eMBSndState

address     size       variable name                            type
0x20000124  0x4        pucSndBufferCur                          pointer to volatile UCHAR

address     size       variable name                            type
0x200001dc  0x100      ucRTUBuf                                 array[256] of volatile UCHAR

address     size       variable name                            type
0x2000012a  0x2        usRcvBufferPos                           volatile USHORT

address     size       variable name                            type
0x20000128  0x2        usSndBufferCount                         volatile USHORT

address     size       variable name                            type
0x08003168  0x100      aucCRCHi                                 array[256] of const UCHAR

address     size       variable name                            type
0x08003268  0x100      aucCRCLo                                 array[256] of const UCHAR

address     size       variable name                            type
0x20000069  0x1        eMBCurrentMode                           eMBMode

address     size       variable name                            type
0x2000006a  0x1        eMBState                                 anonymous 

address     size       variable name                            type
0x20000078  0x4        peMBFrameReceiveCur                      peMBFrameReceive

address     size       variable name                            type
0x2000006c  0x4        peMBFrameSendCur                         peMBFrameSend

address     size       variable name                            type
0x2000007c  0x4        pvMBFrameCloseCur                        pvMBFrameClose

address     size       variable name                            type
0x20000070  0x4        pvMBFrameStartCur                        pvMBFrameStart

address     size       variable name                            type
0x20000074  0x4        pvMBFrameStopCur                         pvMBFrameStop

address     size       variable name                            type
0x20000080  0x4        pxMBFrameCBByteReceived                  pointer to function 

address     size       variable name                            type
0x2000008c  0x4        pxMBFrameCBReceiveFSMCur                 pointer to function 

address     size       variable name                            type
0x20000090  0x4        pxMBFrameCBTransmitFSMCur                pointer to function 

address     size       variable name                            type
0x20000084  0x4        pxMBFrameCBTransmitterEmpty              pointer to function 

address     size       variable name                            type
0x20000088  0x4        pxMBPortCBTimerExpired                   pointer to function 

address     size       variable name                            type
0x20000068  0x1        ucMBAddress                              UCHAR

address     size       variable name                            type
0x20000094  0x80       xFuncHandlers                            array[16] of xMBFunctionHandler

address     size       variable name                            type
0x20000028  0x40       g_regInstanceTab                         array[4] of MbRegisterInstance_t

address     size       variable name                            type
0x20000024  0x4        g_sysParamCurrent                        SysParam_t
0x20000024  0x2        g_sysParamCurrent.magicCode              uint16_t
0x20000026  0x1        g_sysParamCurrent.modbusAddr             uint8_t
0x20000027  0x1        g_sysParamCurrent.crcVal                 uint8_t

address     size       variable name                            type
0x08003154  0x4        g_sysParamDefault                        const SysParam_t
0x08003154  0x2        g_sysParamDefault.magicCode              uint16_t
0x08003156  0x1        g_sysParamDefault.modbusAddr             uint8_t
0x08003157  0x1        g_sysParamDefault.crcVal                 uint8_t

address     size       variable name                            type
0x20000000  0x24       g_taskComps                              array[3] of TaskComps_t

